(dp1
S'output'
p2
S"<type 'exceptions.AttributeError'> 'Row' object has no attribute 'f_clave_noi'"
p3
sS'layer'
p4
S'/Users/gustavogte/Google Drive/Actual_Hoy/codeGG/web2py/applications/HumanCC/controllers/default.py'
p5
sS'code'
p6
S'# -*- coding: utf-8 -*-\n### required - do no delete\ndef user(): return dict(form=auth())\ndef download(): return response.download(request,db)\ndef call(): return service()\n### end requires\ndef index():\n    return dict()\n\ndef error():\n    return dict()\n\n@auth.requires_login()\ndef datos_manage():\n    form = SQLFORM.smartgrid(db.t_datos,onupdate=auth.archive)\n    return locals()\n\n@auth.requires_login()\ndef empresas_manage():\n    form = SQLFORM.smartgrid(db.t_empresas,onupdate=auth.archive)\n    return locals()\n\n@auth.requires_login()\ndef sucursales_manage():\n    form = SQLFORM.smartgrid(db.t_sucursales,onupdate=auth.archive)\n    return locals()\n\n@auth.requires_login()\ndef departamentos_manage():\n    form = SQLFORM.smartgrid(db.t_departamentos,onupdate=auth.archive)\n    return locals()\n\n@auth.requires_login()\ndef puestos_manage():\n    form = SQLFORM.smartgrid(db.t_puestos,onupdate=auth.archive)\n    return locals()\n\n@auth.requires_login()\ndef niveles_manage():\n    form = SQLFORM.smartgrid(db.t_niveles,onupdate=auth.archive)\n    return locals()\n\n@auth.requires_login()\ndef estados_manage():\n    form = SQLFORM.smartgrid(db.t_estados,onupdate=auth.archive)\n    return locals()\n\n@auth.requires_login()\ndef nomina1a_manage():\n    form = SQLFORM.smartgrid(db.t_nomina1a,onupdate=auth.archive)\n    return locals()\n\n\nresponse._vars=response._caller(nomina1a_manage)\n'
p7
sS'snapshot'
p8
(dp9
S'exception'
p10
(dp11
S'__hash__'
p12
S"<method-wrapper '__hash__' of exceptions.AttributeError object>"
p13
sS'__setattr__'
p14
S"<method-wrapper '__setattr__' of exceptions.AttributeError object>"
p15
sS'__reduce_ex__'
p16
S'<built-in method __reduce_ex__ of exceptions.AttributeError object>'
p17
sS'__getslice__'
p18
S"<method-wrapper '__getslice__' of exceptions.AttributeError object>"
p19
sS'__getitem__'
p20
S"<method-wrapper '__getitem__' of exceptions.AttributeError object>"
p21
sS'__setstate__'
p22
S'<built-in method __setstate__ of exceptions.AttributeError object>'
p23
sS'args'
p24
S'("\'Row\' object has no attribute \'f_clave_noi\'",)'
p25
sS'__reduce__'
p26
S'<built-in method __reduce__ of exceptions.AttributeError object>'
p27
sS'__str__'
p28
S"<method-wrapper '__str__' of exceptions.AttributeError object>"
p29
sS'__format__'
p30
S'<built-in method __format__ of exceptions.AttributeError object>'
p31
sS'__getattribute__'
p32
S"<method-wrapper '__getattribute__' of exceptions.AttributeError object>"
p33
sS'__class__'
p34
S"<type 'exceptions.AttributeError'>"
p35
sS'__unicode__'
p36
S'<built-in method __unicode__ of exceptions.AttributeError object>'
p37
sS'__delattr__'
p38
S"<method-wrapper '__delattr__' of exceptions.AttributeError object>"
p39
sS'__subclasshook__'
p40
S'<built-in method __subclasshook__ of type object>'
p41
sS'__repr__'
p42
S"<method-wrapper '__repr__' of exceptions.AttributeError object>"
p43
sS'__dict__'
p44
S'{}'
p45
sS'__sizeof__'
p46
S'<built-in method __sizeof__ of exceptions.AttributeError object>'
p47
sS'__doc__'
p48
S"'Attribute not found.'"
p49
sS'__init__'
p50
S"<method-wrapper '__init__' of exceptions.AttributeError object>"
p51
sS'__new__'
p52
S'<built-in method __new__ of type object>'
p53
ssS'evalue'
p54
S"'Row' object has no attribute 'f_clave_noi'"
p55
sS'request'
p56
cgluon.html
XML_unpickle
p57
(S's\xbcS\x00\x00<div><table><tr><td style="font-weight:bold;vertical-align:top">ajax</td><td valign="top">:</td><td><div>False</div></td></tr><tr><td style="font-weight:bold;vertical-align:top">application</td><td valign="top">:</td><td><div>HumanCC</div></td></tr><tr><td style="font-weight:bold;vertical-align:top">args</td><td valign="top">:</td><td><div><table><tr><td><div>t_nomina1a</div></td></tr><tr><td><div>view</div></td></tr><tr><td><div>t_nomina1a</div></td></tr><tr><td><div>1</div></td></tr></table></div></td></tr><tr><td style="font-weight:bold;vertical-align:top">body</td><td valign="top">:</td><td><div>&lt;cStringIO.StringO object at 0x1072bc880&gt;</div></td></tr><tr><td style="font-weight:bold;vertical-align:top">cid</td><td valign="top">:</td><td><div>None</div></td></tr><tr><td style="font-weight:bold;vertical-align:top">client</td><td valign="top">:</td><td><div>127.0.0.1</div></td></tr><tr><td style="font-weight:bold;vertical-align:top">controller</td><td valign="top">:</td><td><div>default</div></td></tr><tr><td style="font-weight:bold;vertical-align:top">cookies</td><td valign="top">:</td><td><div><table><tr><td style="font-weight:bold;vertical-align:top">session_id_admin</td><td valign="top">:</td><td><div>127.0.0.1-bc28f54b-4613-4bb4-a60d-f7e4ca3a3ece<table><tr><td style="font-weight:bold;vertical-align:top">comment</td><td valign="top">:</td><td><div></div></td></tr><tr><td style="font-weight:bold;vertical-align:top">domain</td><td valign="top">:</td><td><div></div></td></tr><tr><td style="font-weight:bold;vertical-align:top">expires</td><td valign="top">:</td><td><div></div></td></tr><tr><td style="font-weight:bold;vertical-align:top">httponly</td><td valign="top">:</td><td><div></div></td></tr><tr><td style="font-weight:bold;vertical-align:top">max-age</td><td valign="top">:</td><td><div></div></td></tr><tr><td style="font-weight:bold;vertical-align:top">path</td><td valign="top">:</td><td><div></div></td></tr><tr><td style="font-weight:bold;vertical-align:top">secure</td><td valign="top">:</td><td><div></div></td></tr><tr><td style="font-weight:bold;vertical-align:top">version</td><td valign="top">:</td><td><div></div></td></tr></table></div></td></tr><tr><td style="font-weight:bold;vertical-align:top">session_id_humancc</td><td valign="top">:</td><td><div>127.0.0.1-f3ab4916-f07f-4450-99c5-7d954c0fe183<table><tr><td style="font-weight:bold;vertical-align:top">comment</td><td valign="top">:</td><td><div></div></td></tr><tr><td style="font-weight:bold;vertical-align:top">domain</td><td valign="top">:</td><td><div></div></td></tr><tr><td style="font-weight:bold;vertical-align:top">expires</td><td valign="top">:</td><td><div></div></td></tr><tr><td style="font-weight:bold;vertical-align:top">httponly</td><td valign="top">:</td><td><div></div></td></tr><tr><td style="font-weight:bold;vertical-align:top">max-age</td><td valign="top">:</td><td><div></div></td></tr><tr><td style="font-weight:bold;vertical-align:top">path</td><td valign="top">:</td><td><div></div></td></tr><tr><td style="font-weight:bold;vertical-align:top">secure</td><td valign="top">:</td><td><div></div></td></tr><tr><td style="font-weight:bold;vertical-align:top">version</td><td valign="top">:</td><td><div></div></td></tr></table></div></td></tr></table></div></td></tr><tr><td style="font-weight:bold;vertical-align:top">env</td><td valign="top">:</td><td><div><table><tr><td style="font-weight:bold;vertical-align:top">app_folders</td><td valign="top">:</td><td><div>set([&#x27;/Users/gustavogte/Google Drive/Actual_Hoy/codeGG/web2py/applications/HumanCC/&#x27;, &#x27;/Users/gustavogte/Google Drive/Actual_Hoy/codeGG/web2py/applications/welcome/&#x27;, &#x27;/Users/gustavogte/Google Drive/Actual_Hoy/codeGG/web2py/applications/admin/&#x27;])</div></td></tr><tr><td style="font-weight:bold;vertical-align:top">applications_parent</td><td valign="top">:</td><td><div>/Users/gustavogte/Google Drive/Actual_Hoy/codeGG/web2py</div></td></tr><tr><td style="font-weight:bold;vertical-align:top">cmd_args</td><td valign="top">:</td><td><div><table><tr><td><div>localhost</div></td></tr></table></div></td></tr><tr><td style="font-weight:bold;vertical-align:top">cmd_options</td><td valign="top">:</td><td><div>&lt;Values at 0x10353e098: {&#x27;verbose&#x27;: False, &#x27;ip&#x27;: &#x27;127.0.0.1&#x27;, &#x27;with_scheduler&#x27;: False, &#x27;ips&#x27;: [], &#x27;shutdown_timeout&#x27;: 5, &#x27;taskbar&#x27;: False, &#x27;with_coverage&#x27;: False, &#x27;port&#x27;: 8000, &#x27;maxthreads&#x27;: None, &#x27;softcron&#x27;: False, &#x27;server_name&#x27;: &#x27;macgg2&#x27;, &#x27;bpython&#x27;: False, &#x27;nogui&#x27;: False, &#x27;pid_filename&#x27;: &#x27;httpserver.pid&#x27;, &#x27;extcron&#x27;: False, &#x27;runcron&#x27;: False, &#x27;run_system_tests&#x27;: False, &#x27;test&#x27;: None, &#x27;folder&#x27;: &#x27;/Users/gustavogte/Google Drive/Actual_Hoy/codeGG/web2py&#x27;, &#x27;config&#x27;: &#x27;&#x27;, &#x27;minthreads&#x27;: None, &#x27;winservice&#x27;: &#x27;&#x27;, &#x27;shell&#x27;: None, &#x27;run&#x27;: &#x27;&#x27;, &#x27;log_filename&#x27;: &#x27;httpserver.log&#x27;, &#x27;debuglevel&#x27;: 30, &#x27;args&#x27;: [&#x27;&#x27;], &#x27;socket_timeout&#x27;: 5, &#x27;ssl_ca_certificate&#x27;: None, &#x27;scheduler&#x27;: None, &#x27;profiler_filename&#x27;: None, &#x27;ssl_private_key&#x27;: &#x27;&#x27;, &#x27;scheduler_groups&#x27;: None, &#x27;password&#x27;: &#x27;gustavo&#x27;, &#x27;request_queue_size&#x27;: 5, &#x27;ssl_certificate&#x27;: &#x27;&#x27;, &#x27;cronjob&#x27;: False, &#x27;numthreads&#x27;: None, &#x27;quiet&#x27;: False, &#x27;interfaces&#x27;: None, &#x27;import_models&#x27;: False, &#x27;timeout&#x27;: 10, &#x27;plain&#x27;: False, &#x27;nobanner&#x27;: False}&gt;</div></td></tr><tr><td style="font-weight:bold;vertical-align:top">db_sessions</td><td valign="top">:</td><td><div>set([])</div></td></tr><tr><td style="font-weight:bold;vertical-align:top">debugging</td><td valign="top">:</td><td><div>False</div></td></tr><tr><td style="font-weight:bold;vertical-align:top">gluon_parent</td><td valign="top">:</td><td><div>/Users/gustavogte/Google Drive/Actual_Hoy/codeGG/web2py</div></td></tr><tr><td style="font-weight:bold;vertical-align:top">http_accept</td><td valign="top">:</td><td><div>text/html,application/xhtml+xml,application/xml;q=0.9,*/*;q=0.8</div></td></tr><tr><td style="font-weight:bold;vertical-align:top">http_accept_encoding</td><td valign="top">:</td><td><div>gzip, deflate</div></td></tr><tr><td style="font-weight:bold;vertical-align:top">http_accept_language</td><td valign="top">:</td><td><div>es-ES,es;q=0.8,en-US;q=0.5,en;q=0.3</div></td></tr><tr><td style="font-weight:bold;vertical-align:top">http_connection</td><td valign="top">:</td><td><div>keep-alive</div></td></tr><tr><td style="font-weight:bold;vertical-align:top">http_cookie</td><td valign="top">:</td><td><div>session_id_humancc=127.0.0.1-f3ab4916-f07f-4450-99c5-7d954c0fe183; session_id_admin=127.0.0.1-bc28f54b-4613-4bb4-a60d-f7e4ca3a3ece</div></td></tr><tr><td style="font-weight:bold;vertical-align:top">http_host</td><td valign="top">:</td><td><div>127.0.0.1:8000</div></td></tr><tr><td style="font-weight:bold;vertical-align:top">http_referer</td><td valign="top">:</td><td><div>http://127.0.0.1:8000/HumanCC/default/nomina1a_manage</div></td></tr><tr><td style="font-weight:bold;vertical-align:top">http_user_agent</td><td valign="top">:</td><td><div>Mozilla/5.0 (Macintosh; Intel Mac OS X 10.8; rv:23.0) Gecko/20100101 Firefox/23.0</div></td></tr><tr><td style="font-weight:bold;vertical-align:top">is_jython</td><td valign="top">:</td><td><div>False</div></td></tr><tr><td style="font-weight:bold;vertical-align:top">is_pypy</td><td valign="top">:</td><td><div>False</div></td></tr><tr><td style="font-weight:bold;vertical-align:top">local_hosts</td><td valign="top">:</td><td><div><table><tr><td><div>macgg2</div></td></tr><tr><td><div>192.168.43.203</div></td></tr><tr><td><div>203.43.168.192.in-addr.arpa</div></td></tr><tr><td><div>::1</div></td></tr><tr><td><div>::ffff:127.0.0.1</div></td></tr><tr><td><div>127.0.0.1</div></td></tr></table></div></td></tr><tr><td style="font-weight:bold;vertical-align:top">path_info</td><td valign="top">:</td><td><div>/HumanCC/default/nomina1a_manage/t_nomina1a/view/t_nomina1a/1</div></td></tr><tr><td style="font-weight:bold;vertical-align:top">query_string</td><td valign="top">:</td><td><div>_signature=06ae8326fc1c5e1793cf78415a65adc5d2170e85</div></td></tr><tr><td style="font-weight:bold;vertical-align:top">remote_addr</td><td valign="top">:</td><td><div>127.0.0.1</div></td></tr><tr><td style="font-weight:bold;vertical-align:top">remote_port</td><td valign="top">:</td><td><div>61534</div></td></tr><tr><td style="font-weight:bold;vertical-align:top">request_method</td><td valign="top">:</td><td><div>GET</div></td></tr><tr><td style="font-weight:bold;vertical-align:top">request_uri</td><td valign="top">:</td><td><div>/HumanCC/default/nomina1a_manage/t_nomina1a/view/t_nomina1a/1?_signature=06ae8326fc1c5e1793cf78415a65adc5d2170e85</div></td></tr><tr><td style="font-weight:bold;vertical-align:top">script_name</td><td valign="top">:</td><td><div></div></td></tr><tr><td style="font-weight:bold;vertical-align:top">server_name</td><td valign="top">:</td><td><div>macgg2</div></td></tr><tr><td style="font-weight:bold;vertical-align:top">server_port</td><td valign="top">:</td><td><div>8000</div></td></tr><tr><td style="font-weight:bold;vertical-align:top">server_protocol</td><td valign="top">:</td><td><div>HTTP/1.1</div></td></tr><tr><td style="font-weight:bold;vertical-align:top">server_software</td><td valign="top">:</td><td><div>Rocket 1.2.6</div></td></tr><tr><td style="font-weight:bold;vertical-align:top">web2py_path</td><td valign="top">:</td><td><div>/Users/gustavogte/Google Drive/Actual_Hoy/codeGG/web2py</div></td></tr><tr><td style="font-weight:bold;vertical-align:top">web2py_version</td><td valign="top">:</td><td><div>2.5.1-stable+timestamp.2013.06.06.15.39.19</div></td></tr><tr><td style="font-weight:bold;vertical-align:top">wsgi_errors</td><td valign="top">:</td><td><div>&lt;open file &#x27;&lt;stderr&gt;&#x27;, mode &#x27;w&#x27; at 0x102b31270&gt;</div></td></tr><tr><td style="font-weight:bold;vertical-align:top">wsgi_file_wrapper</td><td valign="top">:</td><td><div>&lt;class wsgiref.util.FileWrapper at 0x103591598&gt;</div></td></tr><tr><td style="font-weight:bold;vertical-align:top">wsgi_input</td><td valign="top">:</td><td><div>&lt;socket._fileobject object at 0x1072d71d0&gt;</div></td></tr><tr><td style="font-weight:bold;vertical-align:top">wsgi_multiprocess</td><td valign="top">:</td><td><div>False</div></td></tr><tr><td style="font-weight:bold;vertical-align:top">wsgi_multithread</td><td valign="top">:</td><td><div>True</div></td></tr><tr><td style="font-weight:bold;vertical-align:top">wsgi_run_once</td><td valign="top">:</td><td><div>False</div></td></tr><tr><td style="font-weight:bold;vertical-align:top">wsgi_url_scheme</td><td valign="top">:</td><td><div>http</div></td></tr><tr><td style="font-weight:bold;vertical-align:top">wsgi_version</td><td valign="top">:</td><td><div><table><tr><td><div>1</div></td></tr><tr><td><div>0</div></td></tr></table></div></td></tr></table></div></td></tr><tr><td style="font-weight:bold;vertical-align:top">extension</td><td valign="top">:</td><td><div>html</div></td></tr><tr><td style="font-weight:bold;vertical-align:top">folder</td><td valign="top">:</td><td><div>/Users/gustavogte/Google Drive/Actual_Hoy/codeGG/web2py/applications/HumanCC/</div></td></tr><tr><td style="font-weight:bold;vertical-align:top">function</td><td valign="top">:</td><td><div>nomina1a_manage</div></td></tr><tr><td style="font-weight:bold;vertical-align:top">get_vars</td><td valign="top">:</td><td><div><table></table></div></td></tr><tr><td style="font-weight:bold;vertical-align:top">global_settings</td><td valign="top">:</td><td><div><table><tr><td style="font-weight:bold;vertical-align:top">app_folders</td><td valign="top">:</td><td><div>set([&#x27;/Users/gustavogte/Google Drive/Actual_Hoy/codeGG/web2py/applications/HumanCC/&#x27;, &#x27;/Users/gustavogte/Google Drive/Actual_Hoy/codeGG/web2py/applications/welcome/&#x27;, &#x27;/Users/gustavogte/Google Drive/Actual_Hoy/codeGG/web2py/applications/admin/&#x27;])</div></td></tr><tr><td style="font-weight:bold;vertical-align:top">applications_parent</td><td valign="top">:</td><td><div>/Users/gustavogte/Google Drive/Actual_Hoy/codeGG/web2py</div></td></tr><tr><td style="font-weight:bold;vertical-align:top">cmd_args</td><td valign="top">:</td><td><div><table><tr><td><div>localhost</div></td></tr></table></div></td></tr><tr><td style="font-weight:bold;vertical-align:top">cmd_options</td><td valign="top">:</td><td><div>&lt;Values at 0x10353e098: {&#x27;verbose&#x27;: False, &#x27;ip&#x27;: &#x27;127.0.0.1&#x27;, &#x27;with_scheduler&#x27;: False, &#x27;ips&#x27;: [], &#x27;shutdown_timeout&#x27;: 5, &#x27;taskbar&#x27;: False, &#x27;with_coverage&#x27;: False, &#x27;port&#x27;: 8000, &#x27;maxthreads&#x27;: None, &#x27;softcron&#x27;: False, &#x27;server_name&#x27;: &#x27;macgg2&#x27;, &#x27;bpython&#x27;: False, &#x27;nogui&#x27;: False, &#x27;pid_filename&#x27;: &#x27;httpserver.pid&#x27;, &#x27;extcron&#x27;: False, &#x27;runcron&#x27;: False, &#x27;run_system_tests&#x27;: False, &#x27;test&#x27;: None, &#x27;folder&#x27;: &#x27;/Users/gustavogte/Google Drive/Actual_Hoy/codeGG/web2py&#x27;, &#x27;config&#x27;: &#x27;&#x27;, &#x27;minthreads&#x27;: None, &#x27;winservice&#x27;: &#x27;&#x27;, &#x27;shell&#x27;: None, &#x27;run&#x27;: &#x27;&#x27;, &#x27;log_filename&#x27;: &#x27;httpserver.log&#x27;, &#x27;debuglevel&#x27;: 30, &#x27;args&#x27;: [&#x27;&#x27;], &#x27;socket_timeout&#x27;: 5, &#x27;ssl_ca_certificate&#x27;: None, &#x27;scheduler&#x27;: None, &#x27;profiler_filename&#x27;: None, &#x27;ssl_private_key&#x27;: &#x27;&#x27;, &#x27;scheduler_groups&#x27;: None, &#x27;password&#x27;: &#x27;gustavo&#x27;, &#x27;request_queue_size&#x27;: 5, &#x27;ssl_certificate&#x27;: &#x27;&#x27;, &#x27;cronjob&#x27;: False, &#x27;numthreads&#x27;: None, &#x27;quiet&#x27;: False, &#x27;interfaces&#x27;: None, &#x27;import_models&#x27;: False, &#x27;timeout&#x27;: 10, &#x27;plain&#x27;: False, &#x27;nobanner&#x27;: False}&gt;</div></td></tr><tr><td style="font-weight:bold;vertical-align:top">db_sessions</td><td valign="top">:</td><td><div>set([])</div></td></tr><tr><td style="font-weight:bold;vertical-align:top">debugging</td><td valign="top">:</td><td><div>False</div></td></tr><tr><td style="font-weight:bold;vertical-align:top">gluon_parent</td><td valign="top">:</td><td><div>/Users/gustavogte/Google Drive/Actual_Hoy/codeGG/web2py</div></td></tr><tr><td style="font-weight:bold;vertical-align:top">is_jython</td><td valign="top">:</td><td><div>False</div></td></tr><tr><td style="font-weight:bold;vertical-align:top">is_pypy</td><td valign="top">:</td><td><div>False</div></td></tr><tr><td style="font-weight:bold;vertical-align:top">local_hosts</td><td valign="top">:</td><td><div><table><tr><td><div>macgg2</div></td></tr><tr><td><div>192.168.43.203</div></td></tr><tr><td><div>203.43.168.192.in-addr.arpa</div></td></tr><tr><td><div>::1</div></td></tr><tr><td><div>::ffff:127.0.0.1</div></td></tr><tr><td><div>127.0.0.1</div></td></tr></table></div></td></tr><tr><td style="font-weight:bold;vertical-align:top">web2py_version</td><td valign="top">:</td><td><div>2.5.1-stable+timestamp.2013.06.06.15.39.19</div></td></tr></table></div></td></tr><tr><td style="font-weight:bold;vertical-align:top">is_https</td><td valign="top">:</td><td><div>False</div></td></tr><tr><td style="font-weight:bold;vertical-align:top">is_local</td><td valign="top">:</td><td><div>True</div></td></tr><tr><td style="font-weight:bold;vertical-align:top">is_restful</td><td valign="top">:</td><td><div>False</div></td></tr><tr><td style="font-weight:bold;vertical-align:top">now</td><td valign="top">:</td><td><div>datetime.datetime(2013, 8, 27, 17, 28, 24, 996079)</div></td></tr><tr><td style="font-weight:bold;vertical-align:top">post_vars</td><td valign="top">:</td><td><div><table></table></div></td></tr><tr><td style="font-weight:bold;vertical-align:top">raw_args</td><td valign="top">:</td><td><div>t_nomina1a/view/t_nomina1a/1</div></td></tr><tr><td style="font-weight:bold;vertical-align:top">raw_extension</td><td valign="top">:</td><td><div>None</div></td></tr><tr><td style="font-weight:bold;vertical-align:top">url</td><td valign="top">:</td><td><div>/HumanCC/default/nomina1a_manage/t_nomina1a/view/t_nomina1a/1</div></td></tr><tr><td style="font-weight:bold;vertical-align:top">utcnow</td><td valign="top">:</td><td><div>datetime.datetime(2013, 8, 27, 22, 28, 24, 996094)</div></td></tr><tr><td style="font-weight:bold;vertical-align:top">uuid</td><td valign="top">:</td><td><div>HumanCC/127.0.0.1.2013-08-27.17-28-24.da2351d7-f3e2-44b4-985e-1f0f83cb1320</div></td></tr><tr><td style="font-weight:bold;vertical-align:top">vars</td><td valign="top">:</td><td><div><table></table></div></td></tr><tr><td style="font-weight:bold;vertical-align:top">wsgi</td><td valign="top">:</td><td><div><table><tr><td style="font-weight:bold;vertical-align:top">environ</td><td valign="top">:</td><td><div><table><tr><td style="font-weight:bold;vertical-align:top">HTTP_ACCEPT</td><td valign="top">:</td><td><div>text/html,application/xhtml+xml,application/xml;q=0.9,*/*;q=0.8</div></td></tr><tr><td style="font-weight:bold;vertical-align:top">HTTP_ACCEPT_ENCODING</td><td valign="top">:</td><td><div>gzip, deflate</div></td></tr><tr><td style="font-weight:bold;vertical-align:top">HTTP_ACCEPT_LANGUAGE</td><td valign="top">:</td><td><div>es-ES,es;q=0.8,en-US;q=0.5,en;q=0.3</div></td></tr><tr><td style="font-weight:bold;vertical-align:top">HTTP_CONNECTION</td><td valign="top">:</td><td><div>keep-alive</div></td></tr><tr><td style="font-weight:bold;vertical-align:top">HTTP_COOKIE</td><td valign="top">:</td><td><div>session_id_humancc=127.0.0.1-f3ab4916-f07f-4450-99c5-7d954c0fe183; session_id_admin=127.0.0.1-bc28f54b-4613-4bb4-a60d-f7e4ca3a3ece</div></td></tr><tr><td style="font-weight:bold;vertical-align:top">HTTP_HOST</td><td valign="top">:</td><td><div>127.0.0.1:8000</div></td></tr><tr><td style="font-weight:bold;vertical-align:top">HTTP_REFERER</td><td valign="top">:</td><td><div>http://127.0.0.1:8000/HumanCC/default/nomina1a_manage</div></td></tr><tr><td style="font-weight:bold;vertical-align:top">HTTP_USER_AGENT</td><td valign="top">:</td><td><div>Mozilla/5.0 (Macintosh; Intel Mac OS X 10.8; rv:23.0) Gecko/20100101 Firefox/23.0</div></td></tr><tr><td style="font-weight:bold;vertical-align:top">PATH_INFO</td><td valign="top">:</td><td><div>/HumanCC/default/nomina1a_manage/t_nomina1a/view/t_nomina1a/1</div></td></tr><tr><td style="font-weight:bold;vertical-align:top">QUERY_STRING</td><td valign="top">:</td><td><div>_signature=06ae8326fc1c5e1793cf78415a65adc5d2170e85</div></td></tr><tr><td style="font-weight:bold;vertical-align:top">REMOTE_ADDR</td><td valign="top">:</td><td><div>127.0.0.1</div></td></tr><tr><td style="font-weight:bold;vertical-align:top">REMOTE_PORT</td><td valign="top">:</td><td><div>61534</div></td></tr><tr><td style="font-weight:bold;vertical-align:top">REQUEST_METHOD</td><td valign="top">:</td><td><div>GET</div></td></tr><tr><td style="font-weight:bold;vertical-align:top">REQUEST_URI</td><td valign="top">:</td><td><div>/HumanCC/default/nomina1a_manage/t_nomina1a/view/t_nomina1a/1?_signature=06ae8326fc1c5e1793cf78415a65adc5d2170e85</div></td></tr><tr><td style="font-weight:bold;vertical-align:top">SCRIPT_NAME</td><td valign="top">:</td><td><div></div></td></tr><tr><td style="font-weight:bold;vertical-align:top">SERVER_NAME</td><td valign="top">:</td><td><div>macgg2</div></td></tr><tr><td style="font-weight:bold;vertical-align:top">SERVER_PORT</td><td valign="top">:</td><td><div>8000</div></td></tr><tr><td style="font-weight:bold;vertical-align:top">SERVER_PROTOCOL</td><td valign="top">:</td><td><div>HTTP/1.1</div></td></tr><tr><td style="font-weight:bold;vertical-align:top">SERVER_SOFTWARE</td><td valign="top">:</td><td><div>Rocket 1.2.6</div></td></tr><tr><td style="font-weight:bold;vertical-align:top">wsgi.errors</td><td valign="top">:</td><td><div>&lt;open file &#x27;&lt;stderr&gt;&#x27;, mode &#x27;w&#x27; at 0x102b31270&gt;</div></td></tr><tr><td style="font-weight:bold;vertical-align:top">wsgi.file_wrapper</td><td valign="top">:</td><td><div>&lt;class wsgiref.util.FileWrapper at 0x103591598&gt;</div></td></tr><tr><td style="font-weight:bold;vertical-align:top">wsgi.input</td><td valign="top">:</td><td><div>&lt;cStringIO.StringO object at 0x1072bc880&gt;</div></td></tr><tr><td style="font-weight:bold;vertical-align:top">wsgi.multiprocess</td><td valign="top">:</td><td><div>False</div></td></tr><tr><td style="font-weight:bold;vertical-align:top">wsgi.multithread</td><td valign="top">:</td><td><div>True</div></td></tr><tr><td style="font-weight:bold;vertical-align:top">wsgi.run_once</td><td valign="top">:</td><td><div>False</div></td></tr><tr><td style="font-weight:bold;vertical-align:top">wsgi.url_scheme</td><td valign="top">:</td><td><div>http</div></td></tr><tr><td style="font-weight:bold;vertical-align:top">wsgi.version</td><td valign="top">:</td><td><div>1</div></td></tr></table></div></td></tr></table></div></td></tr></table></div>'
tRp58
sS'frames'
p59
(lp60
(dp61
S'file'
p62
S'/Users/gustavogte/Google Drive/Actual_Hoy/codeGG/web2py/gluon/restricted.py'
p63
sS'dump'
p64
(dp65
S'environment'
p66
S"{'A': <class 'gluon.html.A'>, 'ANY_OF': <class 'gluon.validators.ANY_OF'>, 'Auth': <class 'gluon.tools.Auth'>, 'B': <class 'gluon.html.B'>, 'BEAUTIFY': <class 'gluon.html.BEAUTIFY'>, 'BODY': <class 'gluon.html.BODY'>, 'BR': <class 'gluon.html.BR'>, 'BUTTON': <class 'gluon.html.BUTTON'>, 'CAT': <class 'gluon.html.CAT'>, 'CENTER': <class 'gluon.html.CENTER'>, ...}"
p67
sS'ccode'
p68
S'<code object <module> at 0x1072e3f30, file "/Use...ications/HumanCC/controllers/default.py", line 3>'
p69
ssS'lnum'
p70
I212
sS'lines'
p71
(dp72
I207
S'    try:'
p73
sI208
S'        if isinstance(code, types.CodeType):'
p74
sI209
S'            ccode = code'
p75
sI210
S'        else:'
p76
sI211
S'            ccode = compile2(code, layer)'
p77
sI212
S'        exec ccode in environment'
p78
sI213
S'    except HTTP:'
p79
sI214
S'        raise'
p80
sI215
S'    except RestrictedError:'
p81
sI216
S'        # do not encapsulate (obfuscate) the original RestrictedError'
p82
ssS'call'
p83
S"(code='# -*- coding: utf-8 -*-\\n### required - do no del...response._vars=response._caller(nomina1a_manage)\\n', environment={'A': <class 'gluon.html.A'>, 'ANY_OF': <class 'gluon.validators.ANY_OF'>, 'Auth': <class 'gluon.tools.Auth'>, 'B': <class 'gluon.html.B'>, 'BEAUTIFY': <class 'gluon.html.BEAUTIFY'>, 'BODY': <class 'gluon.html.BODY'>, 'BR': <class 'gluon.html.BR'>, 'BUTTON': <class 'gluon.html.BUTTON'>, 'CAT': <class 'gluon.html.CAT'>, 'CENTER': <class 'gluon.html.CENTER'>, ...}, layer='/Users/gustavogte/Google Drive/Actual_Hoy/codeGG/web2py/applications/HumanCC/controllers/default.py')"
p84
sS'func'
p85
S'restricted'
p86
sa(dp87
g62
S'/Users/gustavogte/Google Drive/Actual_Hoy/codeGG/web2py/applications/HumanCC/controllers/default.py'
p88
sg64
(dp89
sg70
I54
sg71
(dp90
I43
S'@auth.requires_login()'
p91
sI44
S'def estados_manage():'
p92
sI45
S'    form = SQLFORM.smartgrid(db.t_estados,onupdate=auth.archive)'
p93
sI46
S'    return locals()'
p94
sI47
S''
sI48
S'@auth.requires_login()'
p95
sI49
S'def nomina1a_manage():'
p96
sI50
S'    form = SQLFORM.smartgrid(db.t_nomina1a,onupdate=auth.archive)'
p97
sI51
S'    return locals()'
p98
sI52
S''
ssg83
S'()'
p99
sg85
S'<module>'
p100
sa(dp101
g62
S'/Users/gustavogte/Google Drive/Actual_Hoy/codeGG/web2py/gluon/globals.py'
p102
sg64
(dp103
S'self'
p104
S'undefined'
p105
sS'f'
S'<function nomina1a_manage>'
p106
ssg70
I194
sg71
(dp107
I192
S"        self.delimiters = ('{{', '}}')"
p108
sI193
S'        self._vars = None'
p109
sI194
S'        self._caller = lambda f: f()'
p110
sI195
S'        self._view_environment = None'
p111
sI196
S'        self._custom_commit = None'
p112
sI197
S'        self._custom_rollback = None'
p113
sI198
S''
sI189
S'        self.menu = []             # used by the default view layout'
p114
sI190
S'        self.files = []            # used by web2py_ajax.html'
p115
sI191
S'        self.generic_patterns = []  # patterns to allow generic views'
p116
ssg83
S'(f=<function nomina1a_manage>)'
p117
sg85
S'<lambda>'
p118
sa(dp119
g62
S'/Users/gustavogte/Google Drive/Actual_Hoy/codeGG/web2py/gluon/tools.py'
p120
sg64
(dp121
S'action'
p122
S'<function nomina1a_manage>'
p123
sS'a'
S'()'
p124
sS'b'
g45
ssg70
I3022
sg71
(dp125
I3017
S'                    flag = condition'
p126
sI3018
S'                if not flag:'
p127
sI3019
S'                    current.session.flash = self.messages.access_denied'
p128
sI3020
S'                    return call_or_redirect('
p129
sI3021
S'                        self.settings.on_failed_authorization)'
p130
sI3022
S'                return action(*a, **b)'
p131
sI3023
S'            f.__doc__ = action.__doc__'
p132
sI3024
S'            f.__name__ = action.__name__'
p133
sI3025
S'            f.__dict__.update(action.__dict__)'
p134
sI3026
S'            return f'
p135
ssg83
S'(*a=(), **b={})'
p136
sg85
S'f'
sa(dp137
g62
S'/Users/gustavogte/Google Drive/Actual_Hoy/codeGG/web2py/applications/HumanCC/controllers/default.py'
p138
sg64
(dp139
S'auth.archive'
p140
S'<function archive>'
p141
sS'form'
p142
g105
sS'global SQLFORM'
p143
S"<class 'gluon.sqlhtml.SQLFORM'>"
p144
sS'global auth'
p145
S'<gluon.tools.Auth object>'
p146
sS'onupdate'
p147
g105
sS'db.t_nomina1a'
p148
S'<Table t_nomina1a (id,f_nombre,f_dias_lab,f_ingr...e,created_on,created_by,modified_on,modified_by)>'
p149
sS'global db'
p150
S'<DAL uri="sqlite://storage.sqlite">'
p151
sS'SQLFORM.smartgrid'
p152
S'<function smartgrid>'
p153
ssg70
I50
sg71
(dp154
I43
S'@auth.requires_login()'
p155
sI44
S'def estados_manage():'
p156
sI45
S'    form = SQLFORM.smartgrid(db.t_estados,onupdate=auth.archive)'
p157
sI46
S'    return locals()'
p158
sI47
S''
sI48
S'@auth.requires_login()'
p159
sI49
S'def nomina1a_manage():'
p160
sI50
S'    form = SQLFORM.smartgrid(db.t_nomina1a,onupdate=auth.archive)'
p161
sI51
S'    return locals()'
p162
sI52
S''
ssg83
S'()'
p163
sg85
S'nomina1a_manage'
p164
sa(dp165
g62
S'/Users/gustavogte/Google Drive/Actual_Hoy/codeGG/web2py/gluon/sqlhtml.py'
p166
sg64
(dp167
S'format'
p168
S'<function format>'
p169
sS'grid.view_form.record'
p170
S"<Row {'f_total': 300.0, 'modified_by': 1L, 'f_de..._descuento_2': 15.0, 'id': 1L, 'f_unidades': 4L}>"
p171
sS'entity'
p172
g105
sS'header'
p173
S"'T nomina1as'"
p174
sS'grid'
p175
S'<gluon.html.DIV object>'
p176
sS'T'
S'<gluon.languages.translator object>'
p177
sS'grid.view_form'
p178
S'<gluon.sqlhtml.SQLFORM object>'
p179
sS'table'
p180
S'<Table t_nomina1a (id,f_nombre,f_dias_lab,f_ingr...e,created_on,created_by,modified_on,modified_by)>'
p181
sS'builtindict'
p182
S"<type 'dict'>"
p183
ssg70
I2693
sg71
(dp184
I2688
S'            if grid.create_form:'
p185
sI2689
S"                header = T('New %(entity)s') % dict(entity=table._singular)"
p186
sI2690
S'            elif grid.update_form:'
p187
sI2691
S"                header = T('Edit %(entity)s') % dict(entity=format(table,grid.update_form.record))"
p188
sI2692
S'            elif grid.view_form:'
p189
sI2693
S"                header = T('View %(entity)s') % dict(entity=format(table,grid.view_form.record))"
p190
sI2694
S'            if next:'
p191
sI2695
S'                breadcrumbs.append(LI('
p192
sI2696
S'                            A(T(header), _class=trap_class(),_href=url()),'
p193
sI2697
S"                            _class='active w2p_grid_breadcrumb_elem'))"
p194
ssg83
S"(table=<Table t_nomina1a (id,f_nombre,f_dias_lab,f_ingr...e,created_on,created_by,modified_on,modified_by)>, constraints={}, linked_tables=None, links=[<function <lambda>>], links_in_grid=True, args=[], user_signature=True, divider='>', breadcrumbs_class='', **kwargs={'onupdate': <function archive>})"
p195
sg85
S'smartgrid'
p196
sa(dp197
g62
S'/Users/gustavogte/Google Drive/Actual_Hoy/codeGG/web2py/gluon/sqlhtml.py'
p198
sg64
(dp199
S'table'
p200
S'<Table t_nomina1a (id,f_nombre,f_dias_lab,f_ingr...e,created_on,created_by,modified_on,modified_by)>'
p201
sS'row'
p202
S"<Row {'f_total': 300.0, 'modified_by': 1L, 'f_de..._descuento_2': 15.0, 'id': 1L, 'f_unidades': 4L}>"
p203
sS'table._format'
p204
S"'%(f_clave_noi)s'"
p205
ssg70
I2561
sg71
(dp206
I2560
S'            elif isinstance(table._format,str):'
p207
sI2561
S'                return table._format % row'
p208
sI2562
S'            elif callable(table._format):'
p209
sI2563
S'                return table._format(row)'
p210
sI2564
S'            else:'
p211
sI2565
S"                return '#'+str(row.id)"
p212
sI2556
S'        name = None'
p213
sI2557
S'        def format(table,row):'
p214
sI2558
S'            if not row:'
p215
sI2559
S"                return T('Unknown')"
p216
ssg83
S"(table=<Table t_nomina1a (id,f_nombre,f_dias_lab,f_ingr...e,created_on,created_by,modified_on,modified_by)>, row=<Row {'f_total': 300.0, 'modified_by': 1L, 'f_de..._descuento_2': 15.0, 'id': 1L, 'f_unidades': 4L}>)"
p217
sg85
S'format'
p218
sa(dp219
g62
S'/Users/gustavogte/Google Drive/Actual_Hoy/codeGG/web2py/gluon/dal.py'
p220
sg64
(dp221
S'self'
p222
S"<Row {'f_total': 300.0, 'modified_by': 1L, 'f_de..._descuento_2': 15.0, 'id': 1L, 'f_unidades': 4L}>"
p223
sS'global ogetattr'
p224
S"<slot wrapper '__getattribute__' of 'object' objects>"
p225
sS'key'
p226
S"'f_clave_noi'"
p227
ssg70
I6866
sg71
(dp228
I6861
S'        elif m:'
p229
sI6862
S'            try:'
p230
sI6863
S'                return ogetattr(self, m.group(1))[m.group(2)]'
p231
sI6864
S'            except (KeyError,AttributeError,TypeError):'
p232
sI6865
S'                key = m.group(2)'
p233
sI6866
S'        return ogetattr(self, key)'
p234
sI6867
S''
sI6868
S'    def __setitem__(self, key, value):'
p235
sI6869
S'        setattr(self, str(key), value)'
p236
sI6870
S''
ssg83
S"(self=<Row {'f_total': 300.0, 'modified_by': 1L, 'f_de..._descuento_2': 15.0, 'id': 1L, 'f_unidades': 4L}>, key='f_clave_noi')"
p237
sg85
g20
sasS'pyver'
p238
S'Python 2.7.2: /usr/bin/python (prefix: /System/Library/Frameworks/Python.framework/Versions/2.7)'
p239
sS'session'
p240
g57
(S's\xf9\x07\x00\x00<div><table><tr><td style="font-weight:bold;vertical-align:top">auth</td><td valign="top">:</td><td><div><table><tr><td style="font-weight:bold;vertical-align:top">expiration</td><td valign="top">:</td><td><div>3600</div></td></tr><tr><td style="font-weight:bold;vertical-align:top">hmac_key</td><td valign="top">:</td><td><div>b15854a6-1be1-4f20-bd37-19174e0c3fe5</div></td></tr><tr><td style="font-weight:bold;vertical-align:top">last_visit</td><td valign="top">:</td><td><div>datetime.datetime(2013, 8, 27, 17, 27, 30, 11540)</div></td></tr><tr><td style="font-weight:bold;vertical-align:top">remember</td><td valign="top">:</td><td><div>False</div></td></tr><tr><td style="font-weight:bold;vertical-align:top">user</td><td valign="top">:</td><td><div><table><tr><td style="font-weight:bold;vertical-align:top">email</td><td valign="top">:</td><td><div>gustavogte@gmail.com</div></td></tr><tr><td style="font-weight:bold;vertical-align:top">first_name</td><td valign="top">:</td><td><div>Gustavo Matias</div></td></tr><tr><td style="font-weight:bold;vertical-align:top">id</td><td valign="top">:</td><td><div>1L</div></td></tr><tr><td style="font-weight:bold;vertical-align:top">last_name</td><td valign="top">:</td><td><div>Gutierrez Leon</div></td></tr><tr><td style="font-weight:bold;vertical-align:top">registration_id</td><td valign="top">:</td><td><div></div></td></tr><tr><td style="font-weight:bold;vertical-align:top">registration_key</td><td valign="top">:</td><td><div></div></td></tr><tr><td style="font-weight:bold;vertical-align:top">reset_password_key</td><td valign="top">:</td><td><div></div></td></tr></table></div></td></tr><tr><td style="font-weight:bold;vertical-align:top">user_groups</td><td valign="top">:</td><td><div><table><tr><td style="font-weight:bold;vertical-align:top">1</td><td valign="top">:</td><td><div>user_1</div></td></tr></table></div></td></tr></table></div></td></tr><tr><td style="font-weight:bold;vertical-align:top">flash</td><td valign="top">:</td><td><div>None</div></td></tr></table></div>'
tRp241
sS'etype'
p242
S"<type 'exceptions.AttributeError'>"
p243
sS'date'
p244
S'Tue Aug 27 17:28:25 2013'
p245
sS'response'
p246
g57
(S's\xb3\x1c\x00\x00<div><table><tr><td style="font-weight:bold;vertical-align:top">body</td><td valign="top">:</td><td><div>&lt;cStringIO.StringO object at 0x106df7148&gt;</div></td></tr><tr><td style="font-weight:bold;vertical-align:top">cookies</td><td valign="top">:</td><td><div><table><tr><td style="font-weight:bold;vertical-align:top">session_id_humancc</td><td valign="top">:</td><td><div>127.0.0.1-f3ab4916-f07f-4450-99c5-7d954c0fe183<table><tr><td style="font-weight:bold;vertical-align:top">comment</td><td valign="top">:</td><td><div></div></td></tr><tr><td style="font-weight:bold;vertical-align:top">domain</td><td valign="top">:</td><td><div></div></td></tr><tr><td style="font-weight:bold;vertical-align:top">expires</td><td valign="top">:</td><td><div></div></td></tr><tr><td style="font-weight:bold;vertical-align:top">httponly</td><td valign="top">:</td><td><div></div></td></tr><tr><td style="font-weight:bold;vertical-align:top">max-age</td><td valign="top">:</td><td><div></div></td></tr><tr><td style="font-weight:bold;vertical-align:top">path</td><td valign="top">:</td><td><div>/</div></td></tr><tr><td style="font-weight:bold;vertical-align:top">secure</td><td valign="top">:</td><td><div></div></td></tr><tr><td style="font-weight:bold;vertical-align:top">version</td><td valign="top">:</td><td><div></div></td></tr></table></div></td></tr></table></div></td></tr><tr><td style="font-weight:bold;vertical-align:top">delimiters</td><td valign="top">:</td><td><div><table><tr><td><div>{{</div></td></tr><tr><td><div>}}</div></td></tr></table></div></td></tr><tr><td style="font-weight:bold;vertical-align:top">files</td><td valign="top">:</td><td><div><table></table></div></td></tr><tr><td style="font-weight:bold;vertical-align:top">flash</td><td valign="top">:</td><td><div></div></td></tr><tr><td style="font-weight:bold;vertical-align:top">generic_patterns</td><td valign="top">:</td><td><div><table><tr><td><div>*</div></td></tr></table></div></td></tr><tr><td style="font-weight:bold;vertical-align:top">headers</td><td valign="top">:</td><td><div><table><tr><td style="font-weight:bold;vertical-align:top">X-Powered-By</td><td valign="top">:</td><td><div>web2py</div></td></tr></table></div></td></tr><tr><td style="font-weight:bold;vertical-align:top">menu</td><td valign="top">:</td><td><div><table><tr><td><div><table><tr><td><div>Indice</div></td></tr><tr><td><div>False</div></td></tr><tr><td><div>/HumanCC/default/index</div></td></tr><tr><td><div><table></table></div></td></tr></table></div></td></tr><tr><td><div><table><tr><td><div>Datos</div></td></tr><tr><td><div>False</div></td></tr><tr><td><div>/HumanCC/default/datos_manage</div></td></tr><tr><td><div><table></table></div></td></tr></table></div></td></tr><tr><td><div><table><tr><td><div>Empresas</div></td></tr><tr><td><div>False</div></td></tr><tr><td><div>/HumanCC/default/empresas_manage</div></td></tr><tr><td><div><table></table></div></td></tr></table></div></td></tr><tr><td><div><table><tr><td><div>Sucursales</div></td></tr><tr><td><div>False</div></td></tr><tr><td><div>/HumanCC/default/sucursales_manage</div></td></tr><tr><td><div><table></table></div></td></tr></table></div></td></tr><tr><td><div><table><tr><td><div>Departamentos</div></td></tr><tr><td><div>False</div></td></tr><tr><td><div>/HumanCC/default/departamentos_manage</div></td></tr><tr><td><div><table></table></div></td></tr></table></div></td></tr><tr><td><div><table><tr><td><div>Puestos</div></td></tr><tr><td><div>False</div></td></tr><tr><td><div>/HumanCC/default/puestos_manage</div></td></tr><tr><td><div><table></table></div></td></tr></table></div></td></tr><tr><td><div><table><tr><td><div>Niveles</div></td></tr><tr><td><div>False</div></td></tr><tr><td><div>/HumanCC/default/niveles_manage</div></td></tr><tr><td><div><table></table></div></td></tr></table></div></td></tr><tr><td><div><table><tr><td><div>Estados</div></td></tr><tr><td><div>False</div></td></tr><tr><td><div>/HumanCC/default/estados_manage</div></td></tr><tr><td><div><table></table></div></td></tr></table></div></td></tr><tr><td><div><table><tr><td><div>Nomina1a</div></td></tr><tr><td><div>True</div></td></tr><tr><td><div>/HumanCC/default/nomina1a_manage</div></td></tr><tr><td><div><table></table></div></td></tr></table></div></td></tr></table></div></td></tr><tr><td style="font-weight:bold;vertical-align:top">meta</td><td valign="top">:</td><td><div><table><tr><td style="font-weight:bold;vertical-align:top">author</td><td valign="top">:</td><td><div>Gustavo Matias Gutierrez Leon &lt;gustavogte@datawork.mx&gt;</div></td></tr><tr><td style="font-weight:bold;vertical-align:top">description</td><td valign="top">:</td><td><div>Administraci\xc3\xb3n y desarrollo de Recursos Humanos.</div></td></tr><tr><td style="font-weight:bold;vertical-align:top">keywords</td><td valign="top">:</td><td><div>Recursos Humanos</div></td></tr></table></div></td></tr><tr><td style="font-weight:bold;vertical-align:top">models_to_run</td><td valign="top">:</td><td><div><table><tr><td><div>^\\w+\\.py$</div></td></tr><tr><td><div>^default/\\w+\\.py$</div></td></tr><tr><td><div>^default/nomina1a_manage/\\w+\\.py$</div></td></tr></table></div></td></tr><tr><td style="font-weight:bold;vertical-align:top">postprocessing</td><td valign="top">:</td><td><div><table></table></div></td></tr><tr><td style="font-weight:bold;vertical-align:top">session_cookie_expires</td><td valign="top">:</td><td><div>None</div></td></tr><tr><td style="font-weight:bold;vertical-align:top">session_data_name</td><td valign="top">:</td><td><div>session_data_humancc</div></td></tr><tr><td style="font-weight:bold;vertical-align:top">session_file</td><td valign="top">:</td><td><div>&lt;open file &#x27;/Users/gustavogte/Google Drive/Actual_Hoy/codeGG/web2py/applications/HumanCC/sessions/127.0.0.1-f3ab4916-f07f-4450-99c5-7d954c0fe183&#x27;, mode &#x27;rb+&#x27; at 0x107028e40&gt;</div></td></tr><tr><td style="font-weight:bold;vertical-align:top">session_filename</td><td valign="top">:</td><td><div>/Users/gustavogte/Google Drive/Actual_Hoy/codeGG/web2py/applications/HumanCC/sessions/127.0.0.1-f3ab4916-f07f-4450-99c5-7d954c0fe183</div></td></tr><tr><td style="font-weight:bold;vertical-align:top">session_id</td><td valign="top">:</td><td><div>127.0.0.1-f3ab4916-f07f-4450-99c5-7d954c0fe183</div></td></tr><tr><td style="font-weight:bold;vertical-align:top">session_id_name</td><td valign="top">:</td><td><div>session_id_humancc</div></td></tr><tr><td style="font-weight:bold;vertical-align:top">session_locked</td><td valign="top">:</td><td><div>True</div></td></tr><tr><td style="font-weight:bold;vertical-align:top">session_new</td><td valign="top">:</td><td><div>False</div></td></tr><tr><td style="font-weight:bold;vertical-align:top">session_storage_type</td><td valign="top">:</td><td><div>file</div></td></tr><tr><td style="font-weight:bold;vertical-align:top">status</td><td valign="top">:</td><td><div>200</div></td></tr><tr><td style="font-weight:bold;vertical-align:top">subtitle</td><td valign="top">:</td><td><div>powered by DataWork</div></td></tr><tr><td style="font-weight:bold;vertical-align:top">title</td><td valign="top">:</td><td><div>HumanCap3 Simple</div></td></tr><tr><td style="font-weight:bold;vertical-align:top">view</td><td valign="top">:</td><td><div>default/nomina1a_manage.html</div></td></tr></table></div>'
tRp247
sS'locals'
p248
(dp249
S'self'
p250
S"<Row {'f_total': 300.0, 'modified_by': 1L, 'f_de..._descuento_2': 15.0, 'id': 1L, 'f_unidades': 4L}>"
p251
sS'm'
S'None'
p252
sS'key'
p253
S"'f_clave_noi'"
p254
sssS'traceback'
p255
S'Traceback (most recent call last):\n  File "/Users/gustavogte/Google Drive/Actual_Hoy/codeGG/web2py/gluon/restricted.py", line 212, in restricted\n    exec ccode in environment\n  File "/Users/gustavogte/Google Drive/Actual_Hoy/codeGG/web2py/applications/HumanCC/controllers/default.py", line 54, in <module>\n  File "/Users/gustavogte/Google Drive/Actual_Hoy/codeGG/web2py/gluon/globals.py", line 194, in <lambda>\n    self._caller = lambda f: f()\n  File "/Users/gustavogte/Google Drive/Actual_Hoy/codeGG/web2py/gluon/tools.py", line 3022, in f\n    return action(*a, **b)\n  File "/Users/gustavogte/Google Drive/Actual_Hoy/codeGG/web2py/applications/HumanCC/controllers/default.py", line 50, in nomina1a_manage\n    form = SQLFORM.smartgrid(db.t_nomina1a,onupdate=auth.archive)\n  File "/Users/gustavogte/Google Drive/Actual_Hoy/codeGG/web2py/gluon/sqlhtml.py", line 2693, in smartgrid\n    header = T(\'View %(entity)s\') % dict(entity=format(table,grid.view_form.record))\n  File "/Users/gustavogte/Google Drive/Actual_Hoy/codeGG/web2py/gluon/sqlhtml.py", line 2561, in format\n    return table._format % row\n  File "/Users/gustavogte/Google Drive/Actual_Hoy/codeGG/web2py/gluon/dal.py", line 6866, in __getitem__\n    return ogetattr(self, key)\nAttributeError: \'Row\' object has no attribute \'f_clave_noi\'\n'
p256
s.