(dp1
S'output'
p2
S"<class 'sqlite3.OperationalError'> Cannot add a NOT NULL column with default value NULL"
p3
sS'layer'
p4
S'/Users/gustavogte/Google Drive/Actual_Hoy/codeGG/web2py/applications/HumanCap3/models/db_wizard.py'
p5
sS'code'
p6
S"### we prepend t_ to tablenames and f_ to fieldnames for disambiguity\n\n\n########################################\ndb.define_table('t_niveles',\n    Field('f_nivel', type='string',\n          label=T('Nivel')),\n    auth.signature,\n    format='%(f_nivel)s',\n    migrate=settings.migrate)\n\ndb.define_table('t_niveles_archive',db.t_niveles,Field('current_record','reference t_niveles',readable=False,writable=False))\n\n########################################\ndb.define_table('t_empresas',\n    Field('f_empresa', type='string',\n          label=T('Empresa')),\n    auth.signature,\n    format='%(f_empresa)s',\n    migrate=settings.migrate)\n\ndb.define_table('t_empresas_archive',db.t_empresas,Field('current_record','reference t_empresas',readable=False,writable=False))\n\n########################################\ndb.define_table('t_estados',\n    Field('f_estado', type='string',\n          label=T('Estado')),\n    auth.signature,\n    format='%(f_estado)s',\n    migrate=settings.migrate)\n\ndb.define_table('t_estados_archive',db.t_estados,Field('current_record','reference t_estados',readable=False,writable=False))\n\n########################################\ndb.define_table('t_sucursales',\n    Field('f_empresa', type='reference t_empresas',\n          label=T('Empresa')),\n    Field('f_sucursal', type='string',\n          label=T('Sucursal')),\n    Field('f_estado', type='reference t_estados',\n          label=T('Estado')),\n    auth.signature,\n    format='%(f_empresa)s',\n    migrate=settings.migrate)\n\ndb.define_table('t_sucursales_archive',db.t_sucursales,Field('current_record','reference t_sucursales',readable=False,writable=False))\n\n########################################\ndb.define_table('t_departamentos',\n    Field('f_empresa', type='reference t_empresas',\n          label=T('Empresa')),\n    Field('f_sucursal', type='reference t_sucursales',\n          label=T('Sucursal')),\n    Field('f_departamento', type='string',\n          label=T('Departamento')),\n    auth.signature,\n    format='%(f_empresa)s',\n    migrate=settings.migrate)\n\ndb.define_table('t_departamentos_archive',db.t_departamentos,Field('current_record','reference t_departamentos',readable=False,writable=False))\n\n########################################\ndb.define_table('t_puestos',\n    Field('f_puesto', type='string',\n          label=T('Puesto')),\n    Field('f_nivel', type='reference t_niveles',\n          label=T('Nivel')),\n    auth.signature,\n    format='%(f_puesto)s',\n    migrate=settings.migrate)\n\ndb.define_table('t_puestos_archive',db.t_puestos,Field('current_record','reference t_puestos',readable=False,writable=False))\n\n########################################\ndb.define_table('t_datos',\n    Field('f_clave_noi', type='string', unique=True,\n          label=T('Clave Noi')),\n    Field('f_nombre', type='string', notnull=True, unique=True,\n          label=T('Nombre')),\n    Field('f_estatus', type='string', notnull=True,\n          label=T('Estatus')),\n    Field('f_fecha_nacimiento', type='date',\n          label=T('Fecha Nacimiento')),\n    Field('f_foto', type='upload',\n          label=T('Foto')),\n    Field('f_email', type='string',\n          label=T('Email')),\n    Field('f_telefono', type='string',\n          label=T('Telefono')),\n    Field('f_fecha_alta', type='date', notnull=True,\n          label=T('Fecha Alta')),\n    Field('f_estatus', type='string',\n          label=T('Estatus')),\n    Field('f_fecha_baja', type='date',\n          label=T('Fecha Baja')),\n    Field('f_ife', type='upload',\n          label=T('Ife')),\n    Field('f_contrato', type='upload',\n          label=T('Contrato')),\n    Field('f_escolaridad', type='string',\n          label=T('Escolaridad')),\n    Field('f_observaciones', type='string',\n          label=T('Observaciones')),\n    Field('f_empresa', type='reference t_empresas',\n          label=T('Empresa')),\n    Field('f_sucursal', type='reference t_sucursales',\n          label=T('Sucursal')),\n    Field('f_departamento', type='reference t_departamentos',\n          label=T('Departamento')),\n    Field('f_puesto', type='reference t_puestos',\n          label=T('Puesto')),\n    Field('f_nivel', type='reference t_niveles',\n          label=T('Nivel')),\n    Field('f_fijo_15d', type='string',\n          label=T('Fijo 15d')),\n    Field('f_noi_15d_max', type='string',\n          label=T('Noi 15d Max')),\n    auth.signature,\n    format='%(f_clave_noi)s',\n    migrate=settings.migrate)\n\ndb.define_table('t_datos_archive',db.t_datos,Field('current_record','reference t_datos',readable=False,writable=False))\n\n########################################\ndb.define_table('t_nomina1a',\n    Field('f_clave_noi', type='reference t_datos',\n          label=T('Clave Noi')),\n    Field('f_nombre', type='reference t_datos',\n          label=T('Nombre')),\n    Field('f_empresa', type='reference t_datos',\n          label=T('Empresa')),\n    Field('f_sucursal', type='reference t_datos',\n          label=T('Sucursal')),\n    Field('f_departamento', type='reference t_datos',\n          label=T('Departamento')),\n    Field('f_puesto', type='reference t_datos',\n          label=T('Puesto')),\n    Field('f_nivel', type='reference t_datos',\n          label=T('Nivel')),\n    Field('f_fijo_15d', type='reference t_datos',\n          label=T('Fijo 15d')),\n    Field('f_dias_lab', type='integer',\n          label=T('Dias Lab')),\n    Field('f_ingreso_fijo', type='double',\n          label=T('Ingreso Fijo')),\n    Field('f_unidades', type='integer',\n          label=T('Unidades')),\n    Field('f_ingreso_comision', type='double',\n          label=T('Ingreso Comision')),\n    Field('f_ingreso_bono', type='double',\n          label=T('Ingreso Bono')),\n    Field('f_ingreso_otros', type='double',\n          label=T('Ingreso Otros')),\n    Field('f_descuento_1', type='double',\n          label=T('Descuento 1')),\n    Field('f_descuento_2', type='double',\n          label=T('Descuento 2')),\n    Field('f_total', type='double',\n          label=T('Total')),\n    auth.signature,\n    format='%(f_clave_noi)s',\n    migrate=settings.migrate)\n\ndb.define_table('t_nomina1a_archive',db.t_nomina1a,Field('current_record','reference t_nomina1a',readable=False,writable=False))\n"
p7
sS'snapshot'
p8
(dp9
S'exception'
p10
(dp11
S'__module__'
p12
S"'sqlite3'"
p13
sS'__getslice__'
p14
S"<method-wrapper '__getslice__' of OperationalError object>"
p15
sS'__str__'
p16
S"<method-wrapper '__str__' of OperationalError object>"
p17
sS'__reduce__'
p18
S'<built-in method __reduce__ of OperationalError object>'
p19
sS'__dict__'
p20
S'{}'
p21
sS'__sizeof__'
p22
S'<built-in method __sizeof__ of OperationalError object>'
p23
sS'__weakref__'
p24
S'None'
p25
sS'__init__'
p26
S"<method-wrapper '__init__' of OperationalError object>"
p27
sS'__setattr__'
p28
S"<method-wrapper '__setattr__' of OperationalError object>"
p29
sS'__reduce_ex__'
p30
S'<built-in method __reduce_ex__ of OperationalError object>'
p31
sS'__new__'
p32
S'<built-in method __new__ of type object>'
p33
sS'__format__'
p34
S'<built-in method __format__ of OperationalError object>'
p35
sS'__class__'
p36
S"<class 'sqlite3.OperationalError'>"
p37
sS'__doc__'
p38
S'None'
p39
sS'__getitem__'
p40
S"<method-wrapper '__getitem__' of OperationalError object>"
p41
sS'__setstate__'
p42
S'<built-in method __setstate__ of OperationalError object>'
p43
sS'__getattribute__'
p44
S"<method-wrapper '__getattribute__' of OperationalError object>"
p45
sS'args'
p46
S"('Cannot add a NOT NULL column with default value NULL',)"
p47
sS'__subclasshook__'
p48
S'<built-in method __subclasshook__ of type object>'
p49
sS'__unicode__'
p50
S'<built-in method __unicode__ of OperationalError object>'
p51
sS'__delattr__'
p52
S"<method-wrapper '__delattr__' of OperationalError object>"
p53
sS'__repr__'
p54
S"<method-wrapper '__repr__' of OperationalError object>"
p55
sS'__hash__'
p56
S"<method-wrapper '__hash__' of OperationalError object>"
p57
ssS'evalue'
p58
S'Cannot add a NOT NULL column with default value NULL'
p59
sS'request'
p60
cgluon.html
XML_unpickle
p61
(S's\x14\x84\x00\x00<div><table><tr><td style="font-weight:bold;vertical-align:top;">ajax</td><td style="vertical-align:top;">:</td><td><div>False</div></td></tr><tr><td style="font-weight:bold;vertical-align:top;">application</td><td style="vertical-align:top;">:</td><td><div>HumanCap3</div></td></tr><tr><td style="font-weight:bold;vertical-align:top;">args</td><td style="vertical-align:top;">:</td><td><div><table></table></div></td></tr><tr><td style="font-weight:bold;vertical-align:top;">cid</td><td style="vertical-align:top;">:</td><td><div>None</div></td></tr><tr><td style="font-weight:bold;vertical-align:top;">client</td><td style="vertical-align:top;">:</td><td><div>127.0.0.1</div></td></tr><tr><td style="font-weight:bold;vertical-align:top;">controller</td><td style="vertical-align:top;">:</td><td><div>default</div></td></tr><tr><td style="font-weight:bold;vertical-align:top;">cookies</td><td style="vertical-align:top;">:</td><td><div><table><tr><td style="font-weight:bold;vertical-align:top;">session_data_examples</td><td style="vertical-align:top;">:</td><td><div>8977b9abe12f8c070e503e4dc5856dc3:M_vsF007obt74hOjL4VCW_B9PIJeRzA-FreiaEnxowWZuLm_QmT_jW0ZU2DYyXfpuMD-uWdxL1dCjoUi2EBJ0MpzQxCjJPliI8rm5_0zTJev7vhs1nWK25T8a7-PiZYqItOGyFo3tAYcVejFmY2fgCCP_Lcpatnk6QCuMdmSqEkqj8fAqdUhG7Z94HuRJS6BPGFH3LdfzQciXVgeiMspJOOTk5R2SDbahfubz49KP_Lxzxissi-OoFn8KuZbptc7b83bMCx2tDLWRJrmhUi6MiUs7XL-TlgJQ3K7WdeRKUSdjYWDpZHP6jOaBvm7uOPRU96bjUoN9gXt31jQxH1mj31EOOutpdRwIEdJuYqi3Vy6FbjSEytHzVM90yPFiOc4QPzN5KFh23u2cJwSTKTJrw==<table><tr><td style="font-weight:bold;vertical-align:top;">comment</td><td style="vertical-align:top;">:</td><td><div></div></td></tr><tr><td style="font-weight:bold;vertical-align:top;">domain</td><td style="vertical-align:top;">:</td><td><div></div></td></tr><tr><td style="font-weight:bold;vertical-align:top;">expires</td><td style="vertical-align:top;">:</td><td><div></div></td></tr><tr><td style="font-weight:bold;vertical-align:top;">httponly</td><td style="vertical-align:top;">:</td><td><div></div></td></tr><tr><td style="font-weight:bold;vertical-align:top;">max-age</td><td style="vertical-align:top;">:</td><td><div></div></td></tr><tr><td style="font-weight:bold;vertical-align:top;">path</td><td style="vertical-align:top;">:</td><td><div></div></td></tr><tr><td style="font-weight:bold;vertical-align:top;">secure</td><td style="vertical-align:top;">:</td><td><div></div></td></tr><tr><td style="font-weight:bold;vertical-align:top;">version</td><td style="vertical-align:top;">:</td><td><div></div></td></tr></table></div></td></tr><tr><td style="font-weight:bold;vertical-align:top;">session_id_admin</td><td style="vertical-align:top;">:</td><td><div>127.0.0.1-0643186f-ad0d-413b-b357-4dc6ce4238b8<table><tr><td style="font-weight:bold;vertical-align:top;">comment</td><td style="vertical-align:top;">:</td><td><div></div></td></tr><tr><td style="font-weight:bold;vertical-align:top;">domain</td><td style="vertical-align:top;">:</td><td><div></div></td></tr><tr><td style="font-weight:bold;vertical-align:top;">expires</td><td style="vertical-align:top;">:</td><td><div></div></td></tr><tr><td style="font-weight:bold;vertical-align:top;">httponly</td><td style="vertical-align:top;">:</td><td><div></div></td></tr><tr><td style="font-weight:bold;vertical-align:top;">max-age</td><td style="vertical-align:top;">:</td><td><div></div></td></tr><tr><td style="font-weight:bold;vertical-align:top;">path</td><td style="vertical-align:top;">:</td><td><div></div></td></tr><tr><td style="font-weight:bold;vertical-align:top;">secure</td><td style="vertical-align:top;">:</td><td><div></div></td></tr><tr><td style="font-weight:bold;vertical-align:top;">version</td><td style="vertical-align:top;">:</td><td><div></div></td></tr></table></div></td></tr><tr><td style="font-weight:bold;vertical-align:top;">session_id_admin_pagos</td><td style="vertical-align:top;">:</td><td><div>127.0.0.1-8647ddb1-5360-4a3d-8350-3c6f5b4237e5<table><tr><td style="font-weight:bold;vertical-align:top;">comment</td><td style="vertical-align:top;">:</td><td><div></div></td></tr><tr><td style="font-weight:bold;vertical-align:top;">domain</td><td style="vertical-align:top;">:</td><td><div></div></td></tr><tr><td style="font-weight:bold;vertical-align:top;">expires</td><td style="vertical-align:top;">:</td><td><div></div></td></tr><tr><td style="font-weight:bold;vertical-align:top;">httponly</td><td style="vertical-align:top;">:</td><td><div></div></td></tr><tr><td style="font-weight:bold;vertical-align:top;">max-age</td><td style="vertical-align:top;">:</td><td><div></div></td></tr><tr><td style="font-weight:bold;vertical-align:top;">path</td><td style="vertical-align:top;">:</td><td><div></div></td></tr><tr><td style="font-weight:bold;vertical-align:top;">secure</td><td style="vertical-align:top;">:</td><td><div></div></td></tr><tr><td style="font-weight:bold;vertical-align:top;">version</td><td style="vertical-align:top;">:</td><td><div></div></td></tr></table></div></td></tr><tr><td style="font-weight:bold;vertical-align:top;">session_id_directoriog1</td><td style="vertical-align:top;">:</td><td><div>127.0.0.1-9bba5f5e-aaaf-4d1a-bbbc-e938f2a106a2<table><tr><td style="font-weight:bold;vertical-align:top;">comment</td><td style="vertical-align:top;">:</td><td><div></div></td></tr><tr><td style="font-weight:bold;vertical-align:top;">domain</td><td style="vertical-align:top;">:</td><td><div></div></td></tr><tr><td style="font-weight:bold;vertical-align:top;">expires</td><td style="vertical-align:top;">:</td><td><div></div></td></tr><tr><td style="font-weight:bold;vertical-align:top;">httponly</td><td style="vertical-align:top;">:</td><td><div></div></td></tr><tr><td style="font-weight:bold;vertical-align:top;">max-age</td><td style="vertical-align:top;">:</td><td><div></div></td></tr><tr><td style="font-weight:bold;vertical-align:top;">path</td><td style="vertical-align:top;">:</td><td><div></div></td></tr><tr><td style="font-weight:bold;vertical-align:top;">secure</td><td style="vertical-align:top;">:</td><td><div></div></td></tr><tr><td style="font-weight:bold;vertical-align:top;">version</td><td style="vertical-align:top;">:</td><td><div></div></td></tr></table></div></td></tr><tr><td style="font-weight:bold;vertical-align:top;">session_id_humancap</td><td style="vertical-align:top;">:</td><td><div>127.0.0.1-70a1f7e1-967d-4ae5-a091-a42a101a2564<table><tr><td style="font-weight:bold;vertical-align:top;">comment</td><td style="vertical-align:top;">:</td><td><div></div></td></tr><tr><td style="font-weight:bold;vertical-align:top;">domain</td><td style="vertical-align:top;">:</td><td><div></div></td></tr><tr><td style="font-weight:bold;vertical-align:top;">expires</td><td style="vertical-align:top;">:</td><td><div></div></td></tr><tr><td style="font-weight:bold;vertical-align:top;">httponly</td><td style="vertical-align:top;">:</td><td><div></div></td></tr><tr><td style="font-weight:bold;vertical-align:top;">max-age</td><td style="vertical-align:top;">:</td><td><div></div></td></tr><tr><td style="font-weight:bold;vertical-align:top;">path</td><td style="vertical-align:top;">:</td><td><div></div></td></tr><tr><td style="font-weight:bold;vertical-align:top;">secure</td><td style="vertical-align:top;">:</td><td><div></div></td></tr><tr><td style="font-weight:bold;vertical-align:top;">version</td><td style="vertical-align:top;">:</td><td><div></div></td></tr></table></div></td></tr><tr><td style="font-weight:bold;vertical-align:top;">session_id_humancap2</td><td style="vertical-align:top;">:</td><td><div>127.0.0.1-2685ce70-b2c3-43f3-b38c-f6a87fc9b409<table><tr><td style="font-weight:bold;vertical-align:top;">comment</td><td style="vertical-align:top;">:</td><td><div></div></td></tr><tr><td style="font-weight:bold;vertical-align:top;">domain</td><td style="vertical-align:top;">:</td><td><div></div></td></tr><tr><td style="font-weight:bold;vertical-align:top;">expires</td><td style="vertical-align:top;">:</td><td><div></div></td></tr><tr><td style="font-weight:bold;vertical-align:top;">httponly</td><td style="vertical-align:top;">:</td><td><div></div></td></tr><tr><td style="font-weight:bold;vertical-align:top;">max-age</td><td style="vertical-align:top;">:</td><td><div></div></td></tr><tr><td style="font-weight:bold;vertical-align:top;">path</td><td style="vertical-align:top;">:</td><td><div></div></td></tr><tr><td style="font-weight:bold;vertical-align:top;">secure</td><td style="vertical-align:top;">:</td><td><div></div></td></tr><tr><td style="font-weight:bold;vertical-align:top;">version</td><td style="vertical-align:top;">:</td><td><div></div></td></tr></table></div></td></tr><tr><td style="font-weight:bold;vertical-align:top;">session_id_humancap3</td><td style="vertical-align:top;">:</td><td><div>127.0.0.1-66943f85-d7b0-4a0d-9621-4cfb58fb4264<table><tr><td style="font-weight:bold;vertical-align:top;">comment</td><td style="vertical-align:top;">:</td><td><div></div></td></tr><tr><td style="font-weight:bold;vertical-align:top;">domain</td><td style="vertical-align:top;">:</td><td><div></div></td></tr><tr><td style="font-weight:bold;vertical-align:top;">expires</td><td style="vertical-align:top;">:</td><td><div></div></td></tr><tr><td style="font-weight:bold;vertical-align:top;">httponly</td><td style="vertical-align:top;">:</td><td><div></div></td></tr><tr><td style="font-weight:bold;vertical-align:top;">max-age</td><td style="vertical-align:top;">:</td><td><div></div></td></tr><tr><td style="font-weight:bold;vertical-align:top;">path</td><td style="vertical-align:top;">:</td><td><div></div></td></tr><tr><td style="font-weight:bold;vertical-align:top;">secure</td><td style="vertical-align:top;">:</td><td><div></div></td></tr><tr><td style="font-weight:bold;vertical-align:top;">version</td><td style="vertical-align:top;">:</td><td><div></div></td></tr></table></div></td></tr><tr><td style="font-weight:bold;vertical-align:top;">session_id_simpleapp1gg</td><td style="vertical-align:top;">:</td><td><div>127.0.0.1-3fdfb764-9163-405d-a901-6ae85e873630<table><tr><td style="font-weight:bold;vertical-align:top;">comment</td><td style="vertical-align:top;">:</td><td><div></div></td></tr><tr><td style="font-weight:bold;vertical-align:top;">domain</td><td style="vertical-align:top;">:</td><td><div></div></td></tr><tr><td style="font-weight:bold;vertical-align:top;">expires</td><td style="vertical-align:top;">:</td><td><div></div></td></tr><tr><td style="font-weight:bold;vertical-align:top;">httponly</td><td style="vertical-align:top;">:</td><td><div></div></td></tr><tr><td style="font-weight:bold;vertical-align:top;">max-age</td><td style="vertical-align:top;">:</td><td><div></div></td></tr><tr><td style="font-weight:bold;vertical-align:top;">path</td><td style="vertical-align:top;">:</td><td><div></div></td></tr><tr><td style="font-weight:bold;vertical-align:top;">secure</td><td style="vertical-align:top;">:</td><td><div></div></td></tr><tr><td style="font-weight:bold;vertical-align:top;">version</td><td style="vertical-align:top;">:</td><td><div></div></td></tr></table></div></td></tr><tr><td style="font-weight:bold;vertical-align:top;">session_id_welcome</td><td style="vertical-align:top;">:</td><td><div>127.0.0.1-4f763037-7a21-4e8e-bb2e-71d0029eb0e0<table><tr><td style="font-weight:bold;vertical-align:top;">comment</td><td style="vertical-align:top;">:</td><td><div></div></td></tr><tr><td style="font-weight:bold;vertical-align:top;">domain</td><td style="vertical-align:top;">:</td><td><div></div></td></tr><tr><td style="font-weight:bold;vertical-align:top;">expires</td><td style="vertical-align:top;">:</td><td><div></div></td></tr><tr><td style="font-weight:bold;vertical-align:top;">httponly</td><td style="vertical-align:top;">:</td><td><div></div></td></tr><tr><td style="font-weight:bold;vertical-align:top;">max-age</td><td style="vertical-align:top;">:</td><td><div></div></td></tr><tr><td style="font-weight:bold;vertical-align:top;">path</td><td style="vertical-align:top;">:</td><td><div></div></td></tr><tr><td style="font-weight:bold;vertical-align:top;">secure</td><td style="vertical-align:top;">:</td><td><div></div></td></tr><tr><td style="font-weight:bold;vertical-align:top;">version</td><td style="vertical-align:top;">:</td><td><div></div></td></tr></table></div></td></tr></table></div></td></tr><tr><td style="font-weight:bold;vertical-align:top;">env</td><td style="vertical-align:top;">:</td><td><div><table><tr><td style="font-weight:bold;vertical-align:top;">HTTP_ACCEPT</td><td style="vertical-align:top;">:</td><td><div>text/html,application/xhtml+xml,application/xml;q=0.9,*/*;q=0.8</div></td></tr><tr><td style="font-weight:bold;vertical-align:top;">HTTP_ACCEPT_ENCODING</td><td style="vertical-align:top;">:</td><td><div>gzip,deflate,sdch</div></td></tr><tr><td style="font-weight:bold;vertical-align:top;">HTTP_ACCEPT_LANGUAGE</td><td style="vertical-align:top;">:</td><td><div>es-ES,es;q=0.8</div></td></tr><tr><td style="font-weight:bold;vertical-align:top;">HTTP_CONNECTION</td><td style="vertical-align:top;">:</td><td><div>keep-alive</div></td></tr><tr><td style="font-weight:bold;vertical-align:top;">HTTP_COOKIE</td><td style="vertical-align:top;">:</td><td><div>session_id_simpleapp1gg=127.0.0.1-3fdfb764-9163-405d-a901-6ae85e873630; session_id_directoriog1=127.0.0.1-9bba5f5e-aaaf-4d1a-bbbc-e938f2a106a2; session_data_examples=&quot;8977b9abe12f8c070e503e4dc5856dc3:M_vsF007obt74hOjL4VCW_B9PIJeRzA-FreiaEnxowWZuLm_QmT_jW0ZU2DYyXfpuMD-uWdxL1dCjoUi2EBJ0MpzQxCjJPliI8rm5_0zTJev7vhs1nWK25T8a7-PiZYqItOGyFo3tAYcVejFmY2fgCCP_Lcpatnk6QCuMdmSqEkqj8fAqdUhG7Z94HuRJS6BPGFH3LdfzQciXVgeiMspJOOTk5R2SDbahfubz49KP_Lxzxissi-OoFn8KuZbptc7b83bMCx2tDLWRJrmhUi6MiUs7XL-TlgJQ3K7WdeRKUSdjYWDpZHP6jOaBvm7uOPRU96bjUoN9gXt31jQxH1mj31EOOutpdRwIEdJuYqi3Vy6FbjSEytHzVM90yPFiOc4QPzN5KFh23u2cJwSTKTJrw==&quot;; session_id_welcome=127.0.0.1-4f763037-7a21-4e8e-bb2e-71d0029eb0e0; session_id_humancap=127.0.0.1-70a1f7e1-967d-4ae5-a091-a42a101a2564; session_id_humancap2=127.0.0.1-2685ce70-b2c3-43f3-b38c-f6a87fc9b409; session_id_admin_pagos=127.0.0.1-8647ddb1-5360-4a3d-8350-3c6f5b4237e5; session_id_humancap3=127.0.0.1-66943f85-d7b0-4a0d-9621-4cfb58fb4264; session_id_admin=127.0.0.1-0643186f-ad0d-413b-b357-4dc6ce4238b8</div></td></tr><tr><td style="font-weight:bold;vertical-align:top;">HTTP_HOST</td><td style="vertical-align:top;">:</td><td><div>127.0.0.1:8000</div></td></tr><tr><td style="font-weight:bold;vertical-align:top;">HTTP_REFERER</td><td style="vertical-align:top;">:</td><td><div>http://127.0.0.1:8000/admin/wizard/generated</div></td></tr><tr><td style="font-weight:bold;vertical-align:top;">HTTP_USER_AGENT</td><td style="vertical-align:top;">:</td><td><div>Mozilla/5.0 (Macintosh; Intel Mac OS X 10_8_4) AppleWebKit/537.36 (KHTML, like Gecko) Chrome/28.0.1500.95 Safari/537.36</div></td></tr><tr><td style="font-weight:bold;vertical-align:top;">PATH_INFO</td><td style="vertical-align:top;">:</td><td><div>/HumanCap3/default/index</div></td></tr><tr><td style="font-weight:bold;vertical-align:top;">QUERY_STRING</td><td style="vertical-align:top;">:</td><td><div></div></td></tr><tr><td style="font-weight:bold;vertical-align:top;">REMOTE_ADDR</td><td style="vertical-align:top;">:</td><td><div>127.0.0.1</div></td></tr><tr><td style="font-weight:bold;vertical-align:top;">REMOTE_PORT</td><td style="vertical-align:top;">:</td><td><div>59295</div></td></tr><tr><td style="font-weight:bold;vertical-align:top;">REQUEST_METHOD</td><td style="vertical-align:top;">:</td><td><div>GET</div></td></tr><tr><td style="font-weight:bold;vertical-align:top;">SCRIPT_NAME</td><td style="vertical-align:top;">:</td><td><div></div></td></tr><tr><td style="font-weight:bold;vertical-align:top;">SERVER_NAME</td><td style="vertical-align:top;">:</td><td><div>macgg2.local</div></td></tr><tr><td style="font-weight:bold;vertical-align:top;">SERVER_PORT</td><td style="vertical-align:top;">:</td><td><div>8000</div></td></tr><tr><td style="font-weight:bold;vertical-align:top;">SERVER_PROTOCOL</td><td style="vertical-align:top;">:</td><td><div>HTTP/1.1</div></td></tr><tr><td style="font-weight:bold;vertical-align:top;">SERVER_SOFTWARE</td><td style="vertical-align:top;">:</td><td><div>Rocket 1.2.6</div></td></tr><tr><td style="font-weight:bold;vertical-align:top;">app_folders</td><td style="vertical-align:top;">:</td><td><div>set([&#x27;/Users/gustavogte/Google Drive/Actual_Hoy/codeGG/web2py/applications/HumanCap3/&#x27;, &#x27;/Users/gustavogte/Google Drive/Actual_Hoy/codeGG/web2py/applications/welcome/&#x27;, &#x27;/Users/gustavogte/Google Drive/Actual_Hoy/codeGG/web2py/applications/HumanCap2/&#x27;, &#x27;/Users/gustavogte/Google Drive/Actual_Hoy/codeGG/web2py/applications/admin_pagos/&#x27;, &#x27;/Users/gustavogte/Google Drive/Actual_Hoy/codeGG/web2py/applications/admin/&#x27;, &#x27;/Users/gustavogte/Google Drive/Actual_Hoy/codeGG/web2py/applications/HumanCap/&#x27;])</div></td></tr><tr><td style="font-weight:bold;vertical-align:top;">applications_parent</td><td style="vertical-align:top;">:</td><td><div>/Users/gustavogte/Google Drive/Actual_Hoy/codeGG/web2py</div></td></tr><tr><td style="font-weight:bold;vertical-align:top;">cmd_args</td><td style="vertical-align:top;">:</td><td><div><table><tr><td><div>localhost</div></td></tr></table></div></td></tr><tr><td style="font-weight:bold;vertical-align:top;">cmd_options</td><td style="vertical-align:top;">:</td><td><div>&lt;Values at 0x1078135a8: {&#x27;verbose&#x27;: False, &#x27;ip&#x27;: &#x27;127.0.0.1&#x27;, &#x27;debuglevel&#x27;: 30, &#x27;with_scheduler&#x27;: False, &#x27;ips&#x27;: [&#x27;192.168.1.101&#x27;, &#x27;fe80::62c5:47ff:fe0a:324e%en0&#x27;], &#x27;shutdown_timeout&#x27;: 5, &#x27;taskbar&#x27;: False, &#x27;with_coverage&#x27;: False, &#x27;port&#x27;: 8000, &#x27;maxthreads&#x27;: None, &#x27;softcron&#x27;: False, &#x27;server_name&#x27;: &#x27;macgg2.local&#x27;, &#x27;bpython&#x27;: False, &#x27;nogui&#x27;: False, &#x27;pid_filename&#x27;: &#x27;httpserver.pid&#x27;, &#x27;extcron&#x27;: False, &#x27;runcron&#x27;: False, &#x27;run_system_tests&#x27;: False, &#x27;test&#x27;: None, &#x27;folder&#x27;: &#x27;/Users/gustavogte/Google Drive/Actual_Hoy/codeGG/web2py&#x27;, &#x27;config&#x27;: &#x27;&#x27;, &#x27;minthreads&#x27;: None, &#x27;winservice&#x27;: &#x27;&#x27;, &#x27;shell&#x27;: None, &#x27;run&#x27;: &#x27;&#x27;, &#x27;log_filename&#x27;: &#x27;httpserver.log&#x27;, &#x27;profiler_dir&#x27;: None, &#x27;args&#x27;: [&#x27;&#x27;], &#x27;socket_timeout&#x27;: 5, &#x27;ssl_ca_certificate&#x27;: None, &#x27;scheduler&#x27;: None, &#x27;interfaces&#x27;: None, &#x27;ssl_private_key&#x27;: &#x27;&#x27;, &#x27;scheduler_groups&#x27;: None, &#x27;password&#x27;: &#x27;gustavo&#x27;, &#x27;request_queue_size&#x27;: 5, &#x27;ssl_certificate&#x27;: &#x27;&#x27;, &#x27;cronjob&#x27;: False, &#x27;numthreads&#x27;: None, &#x27;quiet&#x27;: False, &#x27;import_models&#x27;: False, &#x27;timeout&#x27;: 10, &#x27;plain&#x27;: False, &#x27;nobanner&#x27;: False}&gt;</div></td></tr><tr><td style="font-weight:bold;vertical-align:top;">db_sessions</td><td style="vertical-align:top;">:</td><td><div>set([])</div></td></tr><tr><td style="font-weight:bold;vertical-align:top;">debugging</td><td style="vertical-align:top;">:</td><td><div>True</div></td></tr><tr><td style="font-weight:bold;vertical-align:top;">gluon_parent</td><td style="vertical-align:top;">:</td><td><div>/Users/gustavogte/Google Drive/Actual_Hoy/codeGG/web2py</div></td></tr><tr><td style="font-weight:bold;vertical-align:top;">http_accept</td><td style="vertical-align:top;">:</td><td><div>text/html,application/xhtml+xml,application/xml;q=0.9,*/*;q=0.8</div></td></tr><tr><td style="font-weight:bold;vertical-align:top;">http_accept_encoding</td><td style="vertical-align:top;">:</td><td><div>gzip,deflate,sdch</div></td></tr><tr><td style="font-weight:bold;vertical-align:top;">http_accept_language</td><td style="vertical-align:top;">:</td><td><div>es-ES,es;q=0.8</div></td></tr><tr><td style="font-weight:bold;vertical-align:top;">http_connection</td><td style="vertical-align:top;">:</td><td><div>keep-alive</div></td></tr><tr><td style="font-weight:bold;vertical-align:top;">http_cookie</td><td style="vertical-align:top;">:</td><td><div>session_id_simpleapp1gg=127.0.0.1-3fdfb764-9163-405d-a901-6ae85e873630; session_id_directoriog1=127.0.0.1-9bba5f5e-aaaf-4d1a-bbbc-e938f2a106a2; session_data_examples=&quot;8977b9abe12f8c070e503e4dc5856dc3:M_vsF007obt74hOjL4VCW_B9PIJeRzA-FreiaEnxowWZuLm_QmT_jW0ZU2DYyXfpuMD-uWdxL1dCjoUi2EBJ0MpzQxCjJPliI8rm5_0zTJev7vhs1nWK25T8a7-PiZYqItOGyFo3tAYcVejFmY2fgCCP_Lcpatnk6QCuMdmSqEkqj8fAqdUhG7Z94HuRJS6BPGFH3LdfzQciXVgeiMspJOOTk5R2SDbahfubz49KP_Lxzxissi-OoFn8KuZbptc7b83bMCx2tDLWRJrmhUi6MiUs7XL-TlgJQ3K7WdeRKUSdjYWDpZHP6jOaBvm7uOPRU96bjUoN9gXt31jQxH1mj31EOOutpdRwIEdJuYqi3Vy6FbjSEytHzVM90yPFiOc4QPzN5KFh23u2cJwSTKTJrw==&quot;; session_id_welcome=127.0.0.1-4f763037-7a21-4e8e-bb2e-71d0029eb0e0; session_id_humancap=127.0.0.1-70a1f7e1-967d-4ae5-a091-a42a101a2564; session_id_humancap2=127.0.0.1-2685ce70-b2c3-43f3-b38c-f6a87fc9b409; session_id_admin_pagos=127.0.0.1-8647ddb1-5360-4a3d-8350-3c6f5b4237e5; session_id_humancap3=127.0.0.1-66943f85-d7b0-4a0d-9621-4cfb58fb4264; session_id_admin=127.0.0.1-0643186f-ad0d-413b-b357-4dc6ce4238b8</div></td></tr><tr><td style="font-weight:bold;vertical-align:top;">http_host</td><td style="vertical-align:top;">:</td><td><div>127.0.0.1:8000</div></td></tr><tr><td style="font-weight:bold;vertical-align:top;">http_referer</td><td style="vertical-align:top;">:</td><td><div>http://127.0.0.1:8000/admin/wizard/generated</div></td></tr><tr><td style="font-weight:bold;vertical-align:top;">http_user_agent</td><td style="vertical-align:top;">:</td><td><div>Mozilla/5.0 (Macintosh; Intel Mac OS X 10_8_4) AppleWebKit/537.36 (KHTML, like Gecko) Chrome/28.0.1500.95 Safari/537.36</div></td></tr><tr><td style="font-weight:bold;vertical-align:top;">is_jython</td><td style="vertical-align:top;">:</td><td><div>False</div></td></tr><tr><td style="font-weight:bold;vertical-align:top;">is_pypy</td><td style="vertical-align:top;">:</td><td><div>False</div></td></tr><tr><td style="font-weight:bold;vertical-align:top;">is_source</td><td style="vertical-align:top;">:</td><td><div>True</div></td></tr><tr><td style="font-weight:bold;vertical-align:top;">local_hosts</td><td style="vertical-align:top;">:</td><td><div><table><tr><td><div>macgg2.local</div></td></tr><tr><td><div>192.168.1.101</div></td></tr><tr><td><div>::ffff:127.0.0.1</div></td></tr><tr><td><div>::1</div></td></tr><tr><td><div>fe80::62c5:47ff:fe0a:324e%en0</div></td></tr><tr><td><div>127.0.0.1</div></td></tr></table></div></td></tr><tr><td style="font-weight:bold;vertical-align:top;">path_info</td><td style="vertical-align:top;">:</td><td><div>/HumanCap3/default/index</div></td></tr><tr><td style="font-weight:bold;vertical-align:top;">query_string</td><td style="vertical-align:top;">:</td><td><div></div></td></tr><tr><td style="font-weight:bold;vertical-align:top;">remote_addr</td><td style="vertical-align:top;">:</td><td><div>127.0.0.1</div></td></tr><tr><td style="font-weight:bold;vertical-align:top;">remote_port</td><td style="vertical-align:top;">:</td><td><div>59295</div></td></tr><tr><td style="font-weight:bold;vertical-align:top;">request_method</td><td style="vertical-align:top;">:</td><td><div>GET</div></td></tr><tr><td style="font-weight:bold;vertical-align:top;">request_uri</td><td style="vertical-align:top;">:</td><td><div>/HumanCap3/default/index</div></td></tr><tr><td style="font-weight:bold;vertical-align:top;">script_name</td><td style="vertical-align:top;">:</td><td><div></div></td></tr><tr><td style="font-weight:bold;vertical-align:top;">server_name</td><td style="vertical-align:top;">:</td><td><div>macgg2.local</div></td></tr><tr><td style="font-weight:bold;vertical-align:top;">server_port</td><td style="vertical-align:top;">:</td><td><div>8000</div></td></tr><tr><td style="font-weight:bold;vertical-align:top;">server_protocol</td><td style="vertical-align:top;">:</td><td><div>HTTP/1.1</div></td></tr><tr><td style="font-weight:bold;vertical-align:top;">server_software</td><td style="vertical-align:top;">:</td><td><div>Rocket 1.2.6</div></td></tr><tr><td style="font-weight:bold;vertical-align:top;">web2py_path</td><td style="vertical-align:top;">:</td><td><div>/Users/gustavogte/Google Drive/Actual_Hoy/codeGG/web2py</div></td></tr><tr><td style="font-weight:bold;vertical-align:top;">web2py_version</td><td style="vertical-align:top;">:</td><td><div>2.6.0-development+timestamp.2013.08.22.04.31.40</div></td></tr><tr><td style="font-weight:bold;vertical-align:top;">wsgi.errors</td><td style="vertical-align:top;">:</td><td><div>&lt;open file &#x27;&lt;stderr&gt;&#x27;, mode &#x27;w&#x27; at 0x10696c270&gt;</div></td></tr><tr><td style="font-weight:bold;vertical-align:top;">wsgi.file_wrapper</td><td style="vertical-align:top;">:</td><td><div>&lt;class wsgiref.util.FileWrapper at 0x1071d9598&gt;</div></td></tr><tr><td style="font-weight:bold;vertical-align:top;">wsgi.input</td><td style="vertical-align:top;">:</td><td><div>&lt;socket._fileobject object at 0x10b0b5050&gt;</div></td></tr><tr><td style="font-weight:bold;vertical-align:top;">wsgi.multiprocess</td><td style="vertical-align:top;">:</td><td><div>False</div></td></tr><tr><td style="font-weight:bold;vertical-align:top;">wsgi.multithread</td><td style="vertical-align:top;">:</td><td><div>True</div></td></tr><tr><td style="font-weight:bold;vertical-align:top;">wsgi.run_once</td><td style="vertical-align:top;">:</td><td><div>False</div></td></tr><tr><td style="font-weight:bold;vertical-align:top;">wsgi.url_scheme</td><td style="vertical-align:top;">:</td><td><div>http</div></td></tr><tr><td style="font-weight:bold;vertical-align:top;">wsgi.version</td><td style="vertical-align:top;">:</td><td><div><table><tr><td><div>1</div></td></tr><tr><td><div>0</div></td></tr></table></div></td></tr><tr><td style="font-weight:bold;vertical-align:top;">wsgi_errors</td><td style="vertical-align:top;">:</td><td><div>&lt;open file &#x27;&lt;stderr&gt;&#x27;, mode &#x27;w&#x27; at 0x10696c270&gt;</div></td></tr><tr><td style="font-weight:bold;vertical-align:top;">wsgi_file_wrapper</td><td style="vertical-align:top;">:</td><td><div>&lt;class wsgiref.util.FileWrapper at 0x1071d9598&gt;</div></td></tr><tr><td style="font-weight:bold;vertical-align:top;">wsgi_input</td><td style="vertical-align:top;">:</td><td><div>&lt;socket._fileobject object at 0x10b0b5050&gt;</div></td></tr><tr><td style="font-weight:bold;vertical-align:top;">wsgi_multiprocess</td><td style="vertical-align:top;">:</td><td><div>False</div></td></tr><tr><td style="font-weight:bold;vertical-align:top;">wsgi_multithread</td><td style="vertical-align:top;">:</td><td><div>True</div></td></tr><tr><td style="font-weight:bold;vertical-align:top;">wsgi_run_once</td><td style="vertical-align:top;">:</td><td><div>False</div></td></tr><tr><td style="font-weight:bold;vertical-align:top;">wsgi_url_scheme</td><td style="vertical-align:top;">:</td><td><div>http</div></td></tr><tr><td style="font-weight:bold;vertical-align:top;">wsgi_version</td><td style="vertical-align:top;">:</td><td><div><table><tr><td><div>1</div></td></tr><tr><td><div>0</div></td></tr></table></div></td></tr></table></div></td></tr><tr><td style="font-weight:bold;vertical-align:top;">extension</td><td style="vertical-align:top;">:</td><td><div>html</div></td></tr><tr><td style="font-weight:bold;vertical-align:top;">folder</td><td style="vertical-align:top;">:</td><td><div>/Users/gustavogte/Google Drive/Actual_Hoy/codeGG/web2py/applications/HumanCap3/</div></td></tr><tr><td style="font-weight:bold;vertical-align:top;">function</td><td style="vertical-align:top;">:</td><td><div>index</div></td></tr><tr><td style="font-weight:bold;vertical-align:top;">global_settings</td><td style="vertical-align:top;">:</td><td><div><table><tr><td style="font-weight:bold;vertical-align:top;">app_folders</td><td style="vertical-align:top;">:</td><td><div>set([&#x27;/Users/gustavogte/Google Drive/Actual_Hoy/codeGG/web2py/applications/HumanCap3/&#x27;, &#x27;/Users/gustavogte/Google Drive/Actual_Hoy/codeGG/web2py/applications/welcome/&#x27;, &#x27;/Users/gustavogte/Google Drive/Actual_Hoy/codeGG/web2py/applications/HumanCap2/&#x27;, &#x27;/Users/gustavogte/Google Drive/Actual_Hoy/codeGG/web2py/applications/admin_pagos/&#x27;, &#x27;/Users/gustavogte/Google Drive/Actual_Hoy/codeGG/web2py/applications/admin/&#x27;, &#x27;/Users/gustavogte/Google Drive/Actual_Hoy/codeGG/web2py/applications/HumanCap/&#x27;])</div></td></tr><tr><td style="font-weight:bold;vertical-align:top;">applications_parent</td><td style="vertical-align:top;">:</td><td><div>/Users/gustavogte/Google Drive/Actual_Hoy/codeGG/web2py</div></td></tr><tr><td style="font-weight:bold;vertical-align:top;">cmd_args</td><td style="vertical-align:top;">:</td><td><div><table><tr><td><div>localhost</div></td></tr></table></div></td></tr><tr><td style="font-weight:bold;vertical-align:top;">cmd_options</td><td style="vertical-align:top;">:</td><td><div>&lt;Values at 0x1078135a8: {&#x27;verbose&#x27;: False, &#x27;ip&#x27;: &#x27;127.0.0.1&#x27;, &#x27;debuglevel&#x27;: 30, &#x27;with_scheduler&#x27;: False, &#x27;ips&#x27;: [&#x27;192.168.1.101&#x27;, &#x27;fe80::62c5:47ff:fe0a:324e%en0&#x27;], &#x27;shutdown_timeout&#x27;: 5, &#x27;taskbar&#x27;: False, &#x27;with_coverage&#x27;: False, &#x27;port&#x27;: 8000, &#x27;maxthreads&#x27;: None, &#x27;softcron&#x27;: False, &#x27;server_name&#x27;: &#x27;macgg2.local&#x27;, &#x27;bpython&#x27;: False, &#x27;nogui&#x27;: False, &#x27;pid_filename&#x27;: &#x27;httpserver.pid&#x27;, &#x27;extcron&#x27;: False, &#x27;runcron&#x27;: False, &#x27;run_system_tests&#x27;: False, &#x27;test&#x27;: None, &#x27;folder&#x27;: &#x27;/Users/gustavogte/Google Drive/Actual_Hoy/codeGG/web2py&#x27;, &#x27;config&#x27;: &#x27;&#x27;, &#x27;minthreads&#x27;: None, &#x27;winservice&#x27;: &#x27;&#x27;, &#x27;shell&#x27;: None, &#x27;run&#x27;: &#x27;&#x27;, &#x27;log_filename&#x27;: &#x27;httpserver.log&#x27;, &#x27;profiler_dir&#x27;: None, &#x27;args&#x27;: [&#x27;&#x27;], &#x27;socket_timeout&#x27;: 5, &#x27;ssl_ca_certificate&#x27;: None, &#x27;scheduler&#x27;: None, &#x27;interfaces&#x27;: None, &#x27;ssl_private_key&#x27;: &#x27;&#x27;, &#x27;scheduler_groups&#x27;: None, &#x27;password&#x27;: &#x27;gustavo&#x27;, &#x27;request_queue_size&#x27;: 5, &#x27;ssl_certificate&#x27;: &#x27;&#x27;, &#x27;cronjob&#x27;: False, &#x27;numthreads&#x27;: None, &#x27;quiet&#x27;: False, &#x27;import_models&#x27;: False, &#x27;timeout&#x27;: 10, &#x27;plain&#x27;: False, &#x27;nobanner&#x27;: False}&gt;</div></td></tr><tr><td style="font-weight:bold;vertical-align:top;">db_sessions</td><td style="vertical-align:top;">:</td><td><div>set([])</div></td></tr><tr><td style="font-weight:bold;vertical-align:top;">debugging</td><td style="vertical-align:top;">:</td><td><div>True</div></td></tr><tr><td style="font-weight:bold;vertical-align:top;">gluon_parent</td><td style="vertical-align:top;">:</td><td><div>/Users/gustavogte/Google Drive/Actual_Hoy/codeGG/web2py</div></td></tr><tr><td style="font-weight:bold;vertical-align:top;">is_jython</td><td style="vertical-align:top;">:</td><td><div>False</div></td></tr><tr><td style="font-weight:bold;vertical-align:top;">is_pypy</td><td style="vertical-align:top;">:</td><td><div>False</div></td></tr><tr><td style="font-weight:bold;vertical-align:top;">is_source</td><td style="vertical-align:top;">:</td><td><div>True</div></td></tr><tr><td style="font-weight:bold;vertical-align:top;">local_hosts</td><td style="vertical-align:top;">:</td><td><div><table><tr><td><div>macgg2.local</div></td></tr><tr><td><div>192.168.1.101</div></td></tr><tr><td><div>::ffff:127.0.0.1</div></td></tr><tr><td><div>::1</div></td></tr><tr><td><div>fe80::62c5:47ff:fe0a:324e%en0</div></td></tr><tr><td><div>127.0.0.1</div></td></tr></table></div></td></tr><tr><td style="font-weight:bold;vertical-align:top;">web2py_version</td><td style="vertical-align:top;">:</td><td><div>2.6.0-development+timestamp.2013.08.22.04.31.40</div></td></tr></table></div></td></tr><tr><td style="font-weight:bold;vertical-align:top;">is_https</td><td style="vertical-align:top;">:</td><td><div>False</div></td></tr><tr><td style="font-weight:bold;vertical-align:top;">is_local</td><td style="vertical-align:top;">:</td><td><div>True</div></td></tr><tr><td style="font-weight:bold;vertical-align:top;">is_restful</td><td style="vertical-align:top;">:</td><td><div>False</div></td></tr><tr><td style="font-weight:bold;vertical-align:top;">now</td><td style="vertical-align:top;">:</td><td><div>datetime.datetime(2013, 8, 26, 14, 16, 46, 67628)</div></td></tr><tr><td style="font-weight:bold;vertical-align:top;">raw_args</td><td style="vertical-align:top;">:</td><td><div></div></td></tr><tr><td style="font-weight:bold;vertical-align:top;">raw_extension</td><td style="vertical-align:top;">:</td><td><div>None</div></td></tr><tr><td style="font-weight:bold;vertical-align:top;">url</td><td style="vertical-align:top;">:</td><td><div>/HumanCap3/default/index</div></td></tr><tr><td style="font-weight:bold;vertical-align:top;">utcnow</td><td style="vertical-align:top;">:</td><td><div>datetime.datetime(2013, 8, 26, 19, 16, 46, 67639)</div></td></tr><tr><td style="font-weight:bold;vertical-align:top;">uuid</td><td style="vertical-align:top;">:</td><td><div>HumanCap3/127.0.0.1.2013-08-26.14-16-46.ed4d3871-199d-461d-b7d1-30c053fdc0d2</div></td></tr><tr><td style="font-weight:bold;vertical-align:top;">wsgi</td><td style="vertical-align:top;">:</td><td><div>&lt;gluon.main.LazyWSGI object at 0x10b0f3dd0&gt;</div></td></tr></table></div>'
tRp62
sS'frames'
p63
(lp64
(dp65
S'file'
p66
S'/Users/gustavogte/Google Drive/Actual_Hoy/codeGG/web2py/gluon/restricted.py'
p67
sS'dump'
p68
(dp69
S'environment'
p70
S"{'A': <class 'gluon.html.A'>, 'ANY_OF': <class 'gluon.validators.ANY_OF'>, 'Auth': <class 'gluon.tools.Auth'>, 'B': <class 'gluon.html.B'>, 'BEAUTIFY': <class 'gluon.html.BEAUTIFY'>, 'BODY': <class 'gluon.html.BODY'>, 'BR': <class 'gluon.html.BR'>, 'BUTTON': <class 'gluon.html.BUTTON'>, 'CAT': <class 'gluon.html.CAT'>, 'CENTER': <class 'gluon.html.CENTER'>, ...}"
p71
sS'ccode'
p72
S'<code object <module> at 0x10afbc730, file "/Use...lications/HumanCap3/models/db_wizard.py", line 5>'
p73
ssS'lnum'
p74
I217
sS'lines'
p75
(dp76
I212
S'    try:'
p77
sI213
S'        if isinstance(code, types.CodeType):'
p78
sI214
S'            ccode = code'
p79
sI215
S'        else:'
p80
sI216
S'            ccode = compile2(code, layer)'
p81
sI217
S'        exec ccode in environment'
p82
sI218
S'    except HTTP:'
p83
sI219
S'        raise'
p84
sI220
S'    except RestrictedError:'
p85
sI221
S'        # do not encapsulate (obfuscate) the original RestrictedError'
p86
ssS'call'
p87
S'(code="### we prepend t_ to tablenames and f_ to fieldn...ence t_nomina1a\',readable=False,writable=False))\\n", environment={\'A\': <class \'gluon.html.A\'>, \'ANY_OF\': <class \'gluon.validators.ANY_OF\'>, \'Auth\': <class \'gluon.tools.Auth\'>, \'B\': <class \'gluon.html.B\'>, \'BEAUTIFY\': <class \'gluon.html.BEAUTIFY\'>, \'BODY\': <class \'gluon.html.BODY\'>, \'BR\': <class \'gluon.html.BR\'>, \'BUTTON\': <class \'gluon.html.BUTTON\'>, \'CAT\': <class \'gluon.html.CAT\'>, \'CENTER\': <class \'gluon.html.CENTER\'>, ...}, layer=\'/Users/gustavogte/Google Drive/Actual_Hoy/codeGG/web2py/applications/HumanCap3/models/db_wizard.py\')'
p88
sS'func'
p89
S'restricted'
p90
sa(dp91
g66
S'/Users/gustavogte/Google Drive/Actual_Hoy/codeGG/web2py/applications/HumanCap3/models/db_wizard.py'
p92
sg68
(dp93
S'migrate'
p94
S'undefined'
p95
sS'settings.migrate'
p96
S'True'
p97
sS'settings'
p98
S"<Storage {'layout_theme': 'Default', 'subtitle':...l_server': 'localhost', 'login_method': 'local'}>"
p99
ssg74
I120
sg75
(dp100
I115
S"          label=T('Fijo 15d')),"
p101
sI116
S"    Field('f_noi_15d_max', type='string',"
p102
sI117
S"          label=T('Noi 15d Max')),"
p103
sI118
S'    auth.signature,'
p104
sI119
S"    format='%(f_clave_noi)s',"
p105
sI120
S'    migrate=settings.migrate)'
p106
sI121
S''
sI122
S"db.define_table('t_datos_archive',db.t_datos,Field('current_record','reference t_datos',readable=False,writable=False))"
p107
sI123
S''
sI124
S'########################################'
p108
ssg87
S'()'
p109
sg89
S'<module>'
p110
sa(dp111
g66
S'/Users/gustavogte/Google Drive/Actual_Hoy/codeGG/web2py/gluon/dal.py'
p112
sg68
(dp113
S'fields'
p114
S'(<gluon.dal.Field object>, <gluon.dal.Field object>, <gluon.dal.Field object>, <gluon.dal.Field object>, <gluon.dal.Field object>, <gluon.dal.Field object>, <gluon.dal.Field object>, <gluon.dal.Field object>, <gluon.dal.Field object>, <gluon.dal.Field object>, <gluon.dal.Field object>, <gluon.dal.Field object>, <gluon.dal.Field object>, <gluon.dal.Field object>, <gluon.dal.Field object>, <gluon.dal.Field object>, <gluon.dal.Field object>, <gluon.dal.Field object>, <gluon.dal.Field object>, <gluon.dal.Field object>, ...)'
p115
sS'self'
p116
S'<DAL uri="sqlite://storage.sqlite">'
p117
sS'args'
p118
S"{'format': '%(f_clave_noi)s', 'migrate': True}"
p119
sS'tablename'
p120
S"'t_datos'"
p121
sS'table'
p122
g95
sS'self.lazy_define_table'
p123
S'<bound method DAL.lazy_define_table of <DAL uri="sqlite://storage.sqlite">>'
p124
ssg74
I7872
sg75
(dp125
I7872
S'            table = self.lazy_define_table(tablename,*fields,**args)'
p126
sI7873
S'        if not tablename in self.tables:'
p127
sI7874
S'            self.tables.append(tablename)'
p128
sI7875
S'        return table'
p129
sI7876
S''
sI7867
S'                    % (tablename,invalid_args))'
p130
sI7868
S'        if self._lazy_tables and not tablename in self._LAZY_TABLES:'
p131
sI7869
S'            self._LAZY_TABLES[tablename] = (tablename,fields,args)'
p132
sI7870
S'            table = None'
p133
sI7871
S'        else:'
p134
ssg87
S'(self=<DAL uri="sqlite://storage.sqlite">, tablename=\'t_datos\', *fields=(<gluon.dal.Field object>, <gluon.dal.Field object>, <gluon.dal.Field object>, <gluon.dal.Field object>, <gluon.dal.Field object>, <gluon.dal.Field object>, <gluon.dal.Field object>, <gluon.dal.Field object>, <gluon.dal.Field object>, <gluon.dal.Field object>, <gluon.dal.Field object>, <gluon.dal.Field object>, <gluon.dal.Field object>, <gluon.dal.Field object>, <gluon.dal.Field object>, <gluon.dal.Field object>, <gluon.dal.Field object>, <gluon.dal.Field object>, <gluon.dal.Field object>, <gluon.dal.Field object>, ...), **args={\'format\': \'%(f_clave_noi)s\', \'migrate\': True})'
p135
sg89
S'define_table'
p136
sa(dp137
g66
S'/Users/gustavogte/Google Drive/Actual_Hoy/codeGG/web2py/gluon/dal.py'
p138
sg68
(dp139
S'polymodel'
p140
S'None'
p141
ssg74
I7909
sg75
(dp142
I7904
S'            try:'
p143
sI7905
S'                GLOBAL_LOCKER.acquire()'
p144
sI7906
S'                self._lastsql = self._adapter.create_table('
p145
sI7907
S'                    table,migrate=migrate,'
p146
sI7908
S'                    fake_migrate=fake_migrate,'
p147
sI7909
S'                    polymodel=polymodel)'
p148
sI7910
S'            finally:'
p149
sI7911
S'                GLOBAL_LOCKER.release()'
p150
sI7912
S'        else:'
p151
sI7913
S'            table._dbt = None'
p152
ssg87
S'(self=<DAL uri="sqlite://storage.sqlite">, tablename=\'t_datos\', *fields=(<gluon.dal.Field object>, <gluon.dal.Field object>, <gluon.dal.Field object>, <gluon.dal.Field object>, <gluon.dal.Field object>, <gluon.dal.Field object>, <gluon.dal.Field object>, <gluon.dal.Field object>, <gluon.dal.Field object>, <gluon.dal.Field object>, <gluon.dal.Field object>, <gluon.dal.Field object>, <gluon.dal.Field object>, <gluon.dal.Field object>, <gluon.dal.Field object>, <gluon.dal.Field object>, <gluon.dal.Field object>, <gluon.dal.Field object>, <gluon.dal.Field object>, <gluon.dal.Field object>, ...), **args={\'format\': \'%(f_clave_noi)s\', \'migrate\': True})'
p153
sg89
S'lazy_define_table'
p154
sa(dp155
g66
S'/Users/gustavogte/Google Drive/Actual_Hoy/codeGG/web2py/gluon/dal.py'
p156
sg68
(dp157
S'fake_migrate'
p158
S'False'
p159
ssg74
I1026
sg75
(dp160
I1024
S'                                   sql_fields, sql_fields_old,'
p161
sI1025
S'                                   sql_fields_aux, None,'
p162
sI1026
S'                                   fake_migrate=fake_migrate)'
p163
sI1027
S'        return query'
p164
sI1028
S''
sI1029
S'    def migrate_table('
p165
sI1030
S'        self,'
p166
sI1021
S'            self.file_close(tfile)'
p167
sI1022
S'            if sql_fields != sql_fields_old:'
p168
sI1023
S'                self.migrate_table(table,'
p169
ssg87
S'(self=<gluon.dal.SQLiteAdapter object>, table=<Table t_datos (id,f_clave_noi,f_nombre,f_estatu...e,created_on,created_by,modified_on,modified_by)>, migrate=True, fake_migrate=False, polymodel=None)'
p170
sg89
S'create_table'
p171
sa(dp172
g66
S'/Users/gustavogte/Google Drive/Actual_Hoy/codeGG/web2py/gluon/dal.py'
p173
sg68
(dp174
S'self'
p175
S'<gluon.dal.SQLiteAdapter object>'
p176
sS'self.execute'
p177
S'<bound method SQLiteAdapter.execute of <gluon.dal.SQLiteAdapter object>>'
p178
sS'sub_query'
p179
S"'ALTER TABLE t_datos ADD f_fecha_alta DATE NOT NULL;'"
p180
ssg74
I1133
sg75
(dp181
I1128
S'                    if fake_migrate:'
p182
sI1129
S'                        if db._adapter.commit_on_alter_table:'
p183
sI1130
S'                            self.save_dbt(table,sql_fields_current)'
p184
sI1131
S"                        self.log('faked!\\n', table)"
p185
sI1132
S'                    else:'
p186
sI1133
S'                        self.execute(sub_query)'
p187
sI1134
S'                        # Caveat: mysql, oracle and firebird'
p188
sI1135
S'                        # do not allow multiple alter table'
p189
sI1136
S'                        # in one transaction so we must commit'
p190
sI1137
S'                        # partial transactions and'
p191
ssg87
S"(self=<gluon.dal.SQLiteAdapter object>, table=<Table t_datos (id,f_clave_noi,f_nombre,f_estatu...e,created_on,created_by,modified_on,modified_by)>, sql_fields={'created_by': {'length': 512, 'notnull': False, 'sortable': 24, 'sql': 'INTEGER REFERENCES auth_user (id) ON DELETE CASCADE', 'type': 'reference auth_user', 'unique': False}, 'created_on': {'length': 512, 'notnull': False, 'sortable': 23, 'sql': 'TIMESTAMP', 'type': 'datetime', 'unique': False}, 'f_clave_noi': {'length': 512, 'notnull': False, 'sortable': 2, 'sql': 'CHAR(512) UNIQUE', 'type': 'string', 'unique': True}, 'f_contrato': {'length': 512, 'notnull': False, 'sortable': 12, 'sql': 'CHAR(512)', 'type': 'upload', 'unique': False}, 'f_departamento': {'length': 512, 'notnull': False, 'sortable': 17, 'sql': 'INTEGER REFERENCES t_departamentos (id) ON DELETE CASCADE', 'type': 'reference t_departamentos', 'unique': False}, 'f_email': {'length': 512, 'notnull': False, 'sortable': 7, 'sql': 'CHAR(512)', 'type': 'string', 'unique': False}, 'f_empresa': {'length': 512, 'notnull': False, 'sortable': 15, 'sql': 'INTEGER REFERENCES t_empresas (id) ON DELETE CASCADE', 'type': 'reference t_empresas', 'unique': False}, 'f_escolaridad': {'length': 512, 'notnull': False, 'sortable': 13, 'sql': 'CHAR(512)', 'type': 'string', 'unique': False}, 'f_estatus': {'length': 512, 'notnull': True, 'sortable': 4, 'sql': 'CHAR(512) NOT NULL', 'type': 'string', 'unique': False}, 'f_fecha_alta': {'length': 512, 'notnull': True, 'sortable': 9, 'sql': 'DATE NOT NULL', 'type': 'date', 'unique': False}, ...}, sql_fields_old={'created_by': {'length': 512, 'notnull': False, 'sortable': 24, 'sql': 'INTEGER REFERENCES auth_user (id) ON DELETE CASCADE', 'type': 'reference auth_user', 'unique': False}, 'created_on': {'length': 512, 'notnull': False, 'sortable': 23, 'sql': 'TIMESTAMP', 'type': 'datetime', 'unique': False}, 'f_clave_noi': {'length': 512, 'notnull': False, 'sortable': 2, 'sql': 'CHAR(512) UNIQUE', 'type': 'string', 'unique': True}, 'f_contrato': {'length': 512, 'notnull': False, 'sortable': 12, 'sql': 'CHAR(512)', 'type': 'upload', 'unique': False}, 'f_departamento': {'length': 512, 'notnull': False, 'sortable': 17, 'sql': 'INTEGER REFERENCES t_departamentos (id) ON DELETE CASCADE', 'type': 'reference t_departamentos', 'unique': False}, 'f_email': {'length': 512, 'notnull': False, 'sortable': 7, 'sql': 'CHAR(512)', 'type': 'string', 'unique': False}, 'f_empresa': {'length': 512, 'notnull': False, 'sortable': 15, 'sql': 'INTEGER REFERENCES t_empresas (id) ON DELETE CASCADE', 'type': 'reference t_empresas', 'unique': False}, 'f_escolaridad': {'length': 512, 'notnull': False, 'sortable': 13, 'sql': 'CHAR(512)', 'type': 'string', 'unique': False}, 'f_estatus': {'length': 512, 'notnull': True, 'sortable': 4, 'sql': 'CHAR(512) NOT NULL', 'type': 'string', 'unique': False}, 'f_fecha_alta_requiered': {'length': 512, 'notnull': False, 'sortable': 9, 'sql': 'DATE', 'type': 'date', 'unique': False}, ...}, sql_fields_aux={'created_by': {'sql': 'INTEGER REFERENCES auth_user (id) ON DELETE CASCADE'}, 'created_on': {'sql': 'TIMESTAMP'}, 'f_clave_noi': {'sql': 'CHAR(512) UNIQUE'}, 'f_contrato': {'sql': 'CHAR(512)'}, 'f_departamento': {'sql': 'INTEGER REFERENCES t_departamentos (id) ON DELETE CASCADE'}, 'f_email': {'sql': 'CHAR(512)'}, 'f_empresa': {'sql': 'INTEGER REFERENCES t_empresas (id) ON DELETE CASCADE'}, 'f_escolaridad': {'sql': 'CHAR(512)'}, 'f_estatus': {'sql': 'CHAR(512) NOT NULL'}, 'f_fecha_alta': {'sql': 'DATE NOT NULL'}, ...}, logfile=None, fake_migrate=False)"
p192
sg89
S'migrate_table'
p193
sa(dp194
g66
S'/Users/gustavogte/Google Drive/Actual_Hoy/codeGG/web2py/gluon/dal.py'
p195
sg68
(dp196
S'a'
S"('ALTER TABLE t_datos ADD f_fecha_alta DATE NOT NULL;',)"
p197
sS'self'
p198
S'<gluon.dal.SQLiteAdapter object>'
p199
sS'b'
g21
sS'self.log_execute'
p200
S'<bound method SQLiteAdapter.log_execute of <gluon.dal.SQLiteAdapter object>>'
p201
ssg74
I1830
sg75
(dp202
I1825
S'        self.db._timings.append((command,time.time()-t0))'
p203
sI1826
S'        del self.db._timings[:-TIMINGSSIZE]'
p204
sI1827
S'        return ret'
p205
sI1828
S''
sI1829
S'    def execute(self, *a, **b):'
p206
sI1830
S'        return self.log_execute(*a, **b)'
p207
sI1831
S''
sI1832
S'    def represent(self, obj, fieldtype):'
p208
sI1833
S'        field_is_type = fieldtype.startswith'
p209
sI1834
S'        if isinstance(obj, CALLABLETYPES):'
p210
ssg87
S"(self=<gluon.dal.SQLiteAdapter object>, *a=('ALTER TABLE t_datos ADD f_fecha_alta DATE NOT NULL;',), **b={})"
p211
sg89
S'execute'
p212
sa(dp213
g66
S'/Users/gustavogte/Google Drive/Actual_Hoy/codeGG/web2py/gluon/dal.py'
p214
sg68
(dp215
S'a'
S"('ALTER TABLE t_datos ADD f_fecha_alta DATE NOT NULL;',)"
p216
sS'b'
g21
sS'self'
p217
S'<gluon.dal.SQLiteAdapter object>'
p218
sS'ret'
p219
g95
sS'self.cursor'
p220
S'<sqlite3.Cursor object>'
p221
sS'command'
p222
S"'ALTER TABLE t_datos ADD f_fecha_alta DATE NOT NULL;'"
p223
sS'self.cursor.execute'
p224
S'<built-in method execute of sqlite3.Cursor object>'
p225
ssg74
I1824
sg75
(dp226
I1824
S'        ret = self.cursor.execute(command, *a[1:], **b)'
p227
sI1825
S'        self.db._timings.append((command,time.time()-t0))'
p228
sI1826
S'        del self.db._timings[:-TIMINGSSIZE]'
p229
sI1827
S'        return ret'
p230
sI1828
S''
sI1819
S'            command = self.filter_sql_command(command)'
p231
sI1820
S'        if self.db._debug:'
p232
sI1821
S"            LOGGER.debug('SQL: %s' % command)"
p233
sI1822
S'        self.db._lastsql = command'
p234
sI1823
S'        t0 = time.time()'
p235
ssg87
S"(self=<gluon.dal.SQLiteAdapter object>, *a=('ALTER TABLE t_datos ADD f_fecha_alta DATE NOT NULL;',), **b={})"
p236
sg89
S'log_execute'
p237
sasS'pyver'
p238
S'Python 2.7.2: /usr/bin/python (prefix: /System/Library/Frameworks/Python.framework/Versions/2.7)'
p239
sS'session'
p240
g61
(S's\x97\t\x00\x00<div><table><tr><td style="font-weight:bold;vertical-align:top;">auth</td><td style="vertical-align:top;">:</td><td><div><table><tr><td style="font-weight:bold;vertical-align:top;">expiration</td><td style="vertical-align:top;">:</td><td><div>3600</div></td></tr><tr><td style="font-weight:bold;vertical-align:top;">hmac_key</td><td style="vertical-align:top;">:</td><td><div>ae51e30b-6b47-4b48-afd4-204eebba2148</div></td></tr><tr><td style="font-weight:bold;vertical-align:top;">last_visit</td><td style="vertical-align:top;">:</td><td><div>datetime.datetime(2013, 8, 26, 14, 13, 38, 791817)</div></td></tr><tr><td style="font-weight:bold;vertical-align:top;">user</td><td style="vertical-align:top;">:</td><td><div><table><tr><td style="font-weight:bold;vertical-align:top;">email</td><td style="vertical-align:top;">:</td><td><div>gustavogte@gmail.com</div></td></tr><tr><td style="font-weight:bold;vertical-align:top;">first_name</td><td style="vertical-align:top;">:</td><td><div>Gustavo Matias</div></td></tr><tr><td style="font-weight:bold;vertical-align:top;">id</td><td style="vertical-align:top;">:</td><td><div>11L</div></td></tr><tr><td style="font-weight:bold;vertical-align:top;">last_name</td><td style="vertical-align:top;">:</td><td><div>Gutierrez Leon</div></td></tr><tr><td style="font-weight:bold;vertical-align:top;">registration_id</td><td style="vertical-align:top;">:</td><td><div></div></td></tr><tr><td style="font-weight:bold;vertical-align:top;">registration_key</td><td style="vertical-align:top;">:</td><td><div></div></td></tr><tr><td style="font-weight:bold;vertical-align:top;">reset_password_key</td><td style="vertical-align:top;">:</td><td><div></div></td></tr></table></div></td></tr><tr><td style="font-weight:bold;vertical-align:top;">user_groups</td><td style="vertical-align:top;">:</td><td><div><table><tr><td style="font-weight:bold;vertical-align:top;">1</td><td style="vertical-align:top;">:</td><td><div>user_11</div></td></tr></table></div></td></tr></table></div></td></tr><tr><td style="font-weight:bold;vertical-align:top;">flash</td><td style="vertical-align:top;">:</td><td><div>None</div></td></tr><tr><td style="font-weight:bold;vertical-align:top;">last_orderby</td><td style="vertical-align:top;">:</td><td><div>None</div></td></tr><tr><td style="font-weight:bold;vertical-align:top;">last_query</td><td style="vertical-align:top;">:</td><td><div>db.t_empresas.id&gt;0</div></td></tr></table></div>'
tRp241
sS'etype'
p242
S"<class 'sqlite3.OperationalError'>"
p243
sS'date'
p244
S'Mon Aug 26 14:16:48 2013'
p245
sS'response'
p246
g61
(S's\xad\x11\x00\x00<div><table><tr><td style="font-weight:bold;vertical-align:top;">body</td><td style="vertical-align:top;">:</td><td><div>&lt;cStringIO.StringO object at 0x10b07aa78&gt;</div></td></tr><tr><td style="font-weight:bold;vertical-align:top;">cookies</td><td style="vertical-align:top;">:</td><td><div><table></table></div></td></tr><tr><td style="font-weight:bold;vertical-align:top;">delimiters</td><td style="vertical-align:top;">:</td><td><div><table><tr><td><div>{{</div></td></tr><tr><td><div>}}</div></td></tr></table></div></td></tr><tr><td style="font-weight:bold;vertical-align:top;">files</td><td style="vertical-align:top;">:</td><td><div><table></table></div></td></tr><tr><td style="font-weight:bold;vertical-align:top;">flash</td><td style="vertical-align:top;">:</td><td><div></div></td></tr><tr><td style="font-weight:bold;vertical-align:top;">generic_patterns</td><td style="vertical-align:top;">:</td><td><div><table><tr><td><div>*</div></td></tr></table></div></td></tr><tr><td style="font-weight:bold;vertical-align:top;">headers</td><td style="vertical-align:top;">:</td><td><div><table><tr><td style="font-weight:bold;vertical-align:top;">X-Powered-By</td><td style="vertical-align:top;">:</td><td><div>web2py</div></td></tr></table></div></td></tr><tr><td style="font-weight:bold;vertical-align:top;">menu</td><td style="vertical-align:top;">:</td><td><div><table></table></div></td></tr><tr><td style="font-weight:bold;vertical-align:top;">meta</td><td style="vertical-align:top;">:</td><td><div><table></table></div></td></tr><tr><td style="font-weight:bold;vertical-align:top;">models_to_run</td><td style="vertical-align:top;">:</td><td><div><table><tr><td><div>^\\w+\\.py$</div></td></tr><tr><td><div>^default/\\w+\\.py$</div></td></tr><tr><td><div>^default/index/\\w+\\.py$</div></td></tr></table></div></td></tr><tr><td style="font-weight:bold;vertical-align:top;">postprocessing</td><td style="vertical-align:top;">:</td><td><div><table></table></div></td></tr><tr><td style="font-weight:bold;vertical-align:top;">session_client</td><td style="vertical-align:top;">:</td><td><div>127.0.0.1</div></td></tr><tr><td style="font-weight:bold;vertical-align:top;">session_cookie_compression_level</td><td style="vertical-align:top;">:</td><td><div>None</div></td></tr><tr><td style="font-weight:bold;vertical-align:top;">session_cookie_expires</td><td style="vertical-align:top;">:</td><td><div>None</div></td></tr><tr><td style="font-weight:bold;vertical-align:top;">session_cookie_key</td><td style="vertical-align:top;">:</td><td><div>None</div></td></tr><tr><td style="font-weight:bold;vertical-align:top;">session_data_name</td><td style="vertical-align:top;">:</td><td><div>session_data_humancap3</div></td></tr><tr><td style="font-weight:bold;vertical-align:top;">session_file</td><td style="vertical-align:top;">:</td><td><div>&lt;open file &#x27;/Users/gustavogte/Google Drive/Actual_Hoy/codeGG/web2py/applications/HumanCap3/sessions/127.0.0.1-66943f85-d7b0-4a0d-9621-4cfb58fb4264&#x27;, mode &#x27;rb+&#x27; at 0x10b0ee0c0&gt;</div></td></tr><tr><td style="font-weight:bold;vertical-align:top;">session_filename</td><td style="vertical-align:top;">:</td><td><div>/Users/gustavogte/Google Drive/Actual_Hoy/codeGG/web2py/applications/HumanCap3/sessions/127.0.0.1-66943f85-d7b0-4a0d-9621-4cfb58fb4264</div></td></tr><tr><td style="font-weight:bold;vertical-align:top;">session_id</td><td style="vertical-align:top;">:</td><td><div>127.0.0.1-66943f85-d7b0-4a0d-9621-4cfb58fb4264</div></td></tr><tr><td style="font-weight:bold;vertical-align:top;">session_id_name</td><td style="vertical-align:top;">:</td><td><div>session_id_humancap3</div></td></tr><tr><td style="font-weight:bold;vertical-align:top;">session_locked</td><td style="vertical-align:top;">:</td><td><div>True</div></td></tr><tr><td style="font-weight:bold;vertical-align:top;">session_masterapp</td><td style="vertical-align:top;">:</td><td><div>HumanCap3</div></td></tr><tr><td style="font-weight:bold;vertical-align:top;">session_new</td><td style="vertical-align:top;">:</td><td><div>False</div></td></tr><tr><td style="font-weight:bold;vertical-align:top;">session_storage_type</td><td style="vertical-align:top;">:</td><td><div>file</div></td></tr><tr><td style="font-weight:bold;vertical-align:top;">status</td><td style="vertical-align:top;">:</td><td><div>200</div></td></tr><tr><td style="font-weight:bold;vertical-align:top;">view</td><td style="vertical-align:top;">:</td><td><div>default/index.html</div></td></tr></table></div>'
tRp247
sS'locals'
p248
(dp249
S'a'
S"('ALTER TABLE t_datos ADD f_fecha_alta DATE NOT NULL;',)"
p250
sS'self'
p251
S'<gluon.dal.SQLiteAdapter object>'
p252
sS'b'
g21
sS'command'
p253
S"'ALTER TABLE t_datos ADD f_fecha_alta DATE NOT NULL;'"
p254
sS't0'
p255
S'1377544608.484484'
p256
sssS'traceback'
p257
S'Traceback (most recent call last):\n  File "/Users/gustavogte/Google Drive/Actual_Hoy/codeGG/web2py/gluon/restricted.py", line 217, in restricted\n    exec ccode in environment\n  File "/Users/gustavogte/Google Drive/Actual_Hoy/codeGG/web2py/applications/HumanCap3/models/db_wizard.py", line 120, in <module>\n    migrate=settings.migrate)\n  File "/Users/gustavogte/Google Drive/Actual_Hoy/codeGG/web2py/gluon/dal.py", line 7872, in define_table\n    table = self.lazy_define_table(tablename,*fields,**args)\n  File "/Users/gustavogte/Google Drive/Actual_Hoy/codeGG/web2py/gluon/dal.py", line 7909, in lazy_define_table\n    polymodel=polymodel)\n  File "/Users/gustavogte/Google Drive/Actual_Hoy/codeGG/web2py/gluon/dal.py", line 1026, in create_table\n    fake_migrate=fake_migrate)\n  File "/Users/gustavogte/Google Drive/Actual_Hoy/codeGG/web2py/gluon/dal.py", line 1133, in migrate_table\n    self.execute(sub_query)\n  File "/Users/gustavogte/Google Drive/Actual_Hoy/codeGG/web2py/gluon/dal.py", line 1830, in execute\n    return self.log_execute(*a, **b)\n  File "/Users/gustavogte/Google Drive/Actual_Hoy/codeGG/web2py/gluon/dal.py", line 1824, in log_execute\n    ret = self.cursor.execute(command, *a[1:], **b)\nOperationalError: Cannot add a NOT NULL column with default value NULL\n'
p258
s.